(dp0
S'20th-century Indian military personnel'
p1
I82
sS"Indian Bah\xc3\xa1'\xc3\xads"
p2
I570
sS'American women by role'
p3
I3592
sS'American construction trades workers'
p4
I3423
sS'People from Chhattisgarh by district'
p5
I1857
sS'Biographical museums in Staffordshire'
p6
I3944
sS'Indian imams'
p7
I857
sS'People from Shimoga district'
p8
I2556
sS'People by city in Jharkhand'
p9
I1636
sS'English people of Maltese descent'
p10
I4035
sS'Advaitin philosophers'
p11
I188
sS'Peasants and Workers Party of India politicians'
p12
I1623
sS'People from Darrang district'
p13
I1892
sS'Indian women film people'
p14
I1300
sS'Communist Party of India politicians'
p15
I371
sS'English people of Swedish descent'
p16
I4004
sS'Indian business writers'
p17
I590
sS'People from Rajsamand district'
p18
I2477
sS'English civil servants'
p19
I3879
sS'People from the Andaman and Nicobar Islands'
p20
I2644
sS'Families from Washington, D.C.'
p21
I3174
sS'People from Hisar, India'
p22
I2046
sS'People from Bhopal district'
p23
I1802
sS'Indian shipbuilders'
p24
I1211
sS'People of American Reconstruction'
p25
I3439
sS'People from Senapati district'
p26
I2535
sS'American model stubs'
p27
I3215
sS'People from North Sikkim district'
p28
I2384
sS'People from Adilabad district'
p29
I1657
sS'17th-century Indian artists'
p30
I24
sS'British people of Indian descent'
p31
I319
sS'Czech people of Indian descent'
p32
I381
sS'Indian politicians by party by state'
p33
I1143
sS'English people of Italian descent'
p34
I3971
sS'American people of the Mexican\xe2\x80\x93American War'
p35
I3573
sS'Indian investigative journalists'
p36
I878
sS'People from Darjeeling district'
p37
I1891
sS'English people of Irish descent'
p38
I3970
sS'Dutch people of Indian descent'
p39
I408
sS'Bahujan Vikas Aghadi politicians'
p40
I274
sS'Indian diaspora in Barbados'
p41
I660
sS'People from Kozhikode district'
p42
I2205
sS'Indian women by role'
p43
I1291
sS'Indian women jurists'
p44
I1307
sS'People from North Tripura district'
p45
I2385
sS'English psychiatrists'
p46
I3764
sS'American computer specialist stubs'
p47
I3205
sS'Indian politicians by century'
p48
I1139
sS'People from Munger district'
p49
I2326
sS'American Buddhists'
p50
I3451
sS'Alumni by secondary school in India'
p51
I206
sS'People from Khunti district'
p52
I2174
sS'American people of the Barbary Wars'
p53
I3578
sS'People from Wardha district'
p54
I2727
sS'Indian emigrants to Sri Lanka'
p55
I730
sS'People from Gopalpur, Nadia'
p56
I2004
sS'People of Goan descent'
p57
I2757
sS'People from West Tripura district'
p58
I2744
sS'English theatre people'
p59
I3921
sS'Lok Satta Party politicians'
p60
I1457
sS'People from Ratlam'
p61
I2488
sS'Nawabs of Bhopal'
p62
I1574
sS'Indian diaspora in New Zealand'
p63
I675
sS'Arundell family (English aristocracy)'
p64
I3684
sS'Telugu film families'
p65
I2989
sS'Indian field hockey biography stubs'
p66
I812
sS'American prospectors'
p67
I3321
sS'English libertarians'
p68
I4128
sS'English people by period'
p69
I3610
sS'Indian women religious leaders'
p70
I1316
sS'Lists of United States presidential electors'
p71
I3546
sS'People from Balrampur district'
p72
I1740
sS'Chennai municipal councillors'
p73
I348
sS'People from Visakhapatnam district'
p74
I2722
sS'Chalukya dynasty'
p75
I341
sS'Indian expatriates in South Africa'
p76
I791
sS'People from Poonch district, India'
p77
I2433
sS'Biographical museums in North Yorkshire'
p78
I3946
sS'Indian people with disabilities'
p79
I1113
sS'American political people'
p80
I3324
sS'People from Diu district'
p81
I1933
sS'People from Bhopal'
p82
I1801
sS'American female singers of Indian descent'
p83
I215
sS'People from Sirmaur district'
p84
I2576
sS'People from Chhota Udaipur district'
p85
I1860
sS'English Unitarians'
p86
I3629
sS'20th-century Indian people by occupation'
p87
I87
sS'American fur traders'
p88
I3305
sS'Scottish people of Indian descent'
p89
I2905
sS'English civil engineering contractors'
p90
I3830
sS'People of Kashmiri descent'
p91
I2764
sS'People from North 24 Parganas district'
p92
I2378
sS'Japanese people of Indian descent'
p93
I1362
sS'People from Raichur district'
p94
I2459
sS'Murdered Indian journalists'
p95
I1558
sS'People from Auraiya district'
p96
I1722
sS'Indian women in business'
p97
I1302
sS'People from Porvorim'
p98
I2436
sS'Mayors of Mangalore'
p99
I1514
sS'Women of the Kingdom of Cochin'
p100
I3075
sS'Indian Jews by occupation'
p101
I894
sS'People from Rayagada district'
p102
I2491
sS'Dalit artists'
p103
I384
sS'Indian royalty'
p104
I1182
sS'Paralympic competitors for India'
p105
I1610
sS'Indian musician stubs'
p106
I991
sS'Mirza Ghulam Ahmad'
p107
I1539
sS'Indian billionaires'
p108
I573
sS'Indian Muslim historians'
p109
I995
sS'People from Tirap district'
p110
I2659
sS'American women scientists of Indian descent'
p111
I225
sS'People from Dahod district'
p112
I1879
sS'Indian international schools in Qatar'
p113
I872
sS'Hoboes'
p114
I3177
sS'People from Maldah district'
p115
I2270
sS'Works by Mirza Ghulam Ahmad'
p116
I3092
sS'Meitei people'
p117
I1529
sS'Assam academics'
p118
I259
sS'Indian founders'
p119
I838
sS'English medical biography stubs'
p120
I4112
sS'People from Sabarkantha district'
p121
I2506
sS'English people by ethnic or national origin'
p122
I3607
sS'American writers'
p123
I3317
sS'Tripuri people'
p124
I3001
sS'Hurd family'
p125
I3742
sS'Indian child actresses'
p126
I600
sS'People from Ballia district'
p127
I1737
sS'People from Ladakh'
p128
I2220
sS'People from Murshidabad district'
p129
I2327
sS'Activists from Delhi'
p130
I145
sS'American gardeners'
p131
I3333
sS'People from East Kameng district'
p132
I1946
sS'People from Mandi district'
p133
I2274
sS'Pakistani people of Indian descent'
p134
I1597
sS'People from Chandigarh'
p135
I1845
sS'English people of Anguillan descent'
p136
I4068
sS'American people by war'
p137
I3133
sS'American people by occupation and location'
p138
I3429
sS'American Civil War casualties'
p139
I3238
sS'Indian literary critics'
p140
I911
sS'Expatriates in England'
p141
I4048
sS'English religious sceptics'
p142
I3644
sS'People by city in Uttar Pradesh'
p143
I1649
sS'Indian diaspora in the United Arab Emirates'
p144
I687
sS'People from Shahjahanpur district'
p145
I2545
sS'People from Golaghat district'
p146
I1998
sS'Indian film singers'
p147
I825
sS'Indian astronauts'
p148
I561
sS'Lakshadweep politicians'
p149
I1414
sS'Sportspeople from Udaipur'
p150
I2953
sS'Fictional American people by occupation'
p151
I3548
sS'American civil servants'
p152
I3408
sS'People by city in Manipur'
p153
I1641
sS'People from North and Middle Andaman district'
p154
I2379
sS'Images of American people'
p155
I3127
sS'People by city in Goa'
p156
I1630
sS'English democracy activists'
p157
I4141
sS'Indian sceptics'
p158
I1190
sS'People from Rajasthan'
p159
I2467
sS'Communist Party of India (Maoist) politicians'
p160
I366
sS'Devotees of Sri Chinmoy'
p161
I397
sS'Khasi people'
p162
I1401
sS'American folklorists'
p163
I3340
sS'English people of Thai descent'
p164
I4074
sS'Kashmiri people'
p165
I1394
sS'People from Tamil Nadu by occupation'
p166
I2628
sS'People from Karimganj district'
p167
I2142
sS'Indian diaspora in the United States'
p168
I689
sS'Mizoram academics'
p169
I1541
sS'S. P. Balasubrahmanyam'
p170
I2942
sS'People from Nagaland by occupation'
p171
I2339
sS'People from Medak'
p172
I2293
sS'Indian people of Colombian descent'
p173
I1063
sS'People from Nizamabad'
p174
I2375
sS'English pianists'
p175
I3828
sS'Israeli people of Indian descent'
p176
I1349
sS'Indian lawyers by type'
p177
I905
sS'Former Indian townships in South Africa'
p178
I456
sS'Maharajas of Nawanagar'
p179
I1475
sS"Women's sport in India"
p180
I3085
sS'Austrian people of Indian descent'
p181
I270
sS'People from Bilaspur district, Chhattisgarh'
p182
I1818
sS'Western Ganga dynasty'
p183
I3033
sS'English sportspeople by location of origin'
p184
I4145
sS'English librarians'
p185
I3766
sS'Indian chefs'
p186
I596
sS'Images of Indian people'
p187
I505
sS'Universities and colleges affiliated with the Sathya Sai Organization'
p188
I3009
sS'People from Jamnagar'
p189
I2088
sS'Indian male dancers'
p190
I924
sS'Indian victims of crime'
p191
I1277
sS'People murdered in Chandigarh'
p192
I2751
sS'English law biography stubs'
p193
I4119
sS'Indian women scientists'
p194
I1317
sS'Mughal princes'
p195
I1552
sS'Indian Theravada Buddhists'
p196
I1271
sS'People from Dhemaji district'
p197
I1920
sS'People from Tiruchirappalli'
p198
I2660
sS'People from Nagaland by district'
p199
I2338
sS'Indian schoolteachers'
p200
I1194
sS'Muslim dynasties of India'
p201
I1562
sS'English choreographers'
p202
I3809
sS'People from Haryana by occupation'
p203
I2036
sS'Indian diaspora in Kenya'
p204
I671
sS'Mlechchha dynasty'
p205
I1542
sS'English Jacobites'
p206
I4131
sS'People from Pithoragarh district'
p207
I2431
sS'People from Nabarangpur district'
p208
I2334
sS'People from Mandsaur district'
p209
I2278
sS'Trinidad and Tobago people of Indian descent'
p210
I3000
sS'Recipients of the Shanti Swarup Bhatnagar Prize for Science and Technology'
p211
I2860
sS'Twin people from England'
p212
I3601
sS'People from Tawang district'
p213
I2631
sS'English people of Serbian descent'
p214
I4037
sS'American astrologers'
p215
I3261
sS'YSR Congress politicians'
p216
I3099
sS'People from Lalitpur district, India'
p217
I2228
sS'Cochin Jews'
p218
I364
sS'Maharajas of Kolhapur'
p219
I1473
sS'People from Nalgonda district'
p220
I2351
sS'People from Phek district'
p221
I2428
sS'Indian prisoners and detainees'
p222
I1152
sS'American children'
p223
I3556
sS'Indian social democrats'
p224
I1216
sS'Cultural depictions of Annie Oakley'
p225
I3585
sS'Indian police officers killed in the line of duty'
p226
I1129
sS'Administrators in British India'
p227
I185
sS'Recipients of the Padma Vibhushan in social work'
p228
I2854
sS'Fictional Bengali characters'
p229
I435
sS'Indian Jain writers'
p230
I890
sS'People from Bagpat district'
p231
I1731
sS'People from Serchhip district'
p232
I2539
sS'Indian broadcasters'
p233
I577
sS'Hyderabad State politicians'
p234
I501
sS'Maharajas of Travancore'
p235
I1478
sS'Indian sportspeople'
p236
I1233
sS'People from Parbhani district'
p237
I2415
sS'Sukumar Ray'
p238
I2965
sS'Mauritian people of Indian descent'
p239
I1505
sS'Indian businesspeople'
p240
I585
sS'English historians'
p241
I3826
sS'Rashtrakuta dynasty'
p242
I2830
sS'American naturalists'
p243
I3356
sS'Indian supercentenarians'
p244
I1251
sS'English soldiers'
p245
I3792
sS'English people of Jordanian descent'
p246
I4046
sS'American people of Bruneian descent'
p247
I3496
sS'People from South West Garo Hills district'
p248
I2603
sS'English magicians'
p249
I3831
sS'Pakistan Movement activists'
p250
I1599
sS'Indian Quran reciters'
p251
I1165
sS'Revolutionary Communist Party of India politicians'
p252
I2868
sS'Indian collectors'
p253
I623
sS'Lists of American people'
p254
I3112
sS'People from Mumbai City district'
p255
I2323
sS'Indian agnostics'
p256
I530
sS'Indian people of Irish descent'
p257
I1075
sS'Indian male journalists'
p258
I929
sS'American clockmakers'
p259
I3388
sS'Gahadavala dynasty'
p260
I461
sS'American newspaper people'
p261
I3357
sS'Members of Central Legislative Assembly of India'
p262
I1530
sS'Indian scholars of Islam'
p263
I1193
sS'Adivasi activists'
p264
I179
sS'People from Barwani district'
p265
I1770
sS'Brazilian people of Indian descent'
p266
I312
sS'Activists from Rajasthan'
p267
I162
sS'People from Churu district'
p268
I1869
sS'English spies'
p269
I3777
sS'People from Saharanpur'
p270
I2509
sS'People from Rohtas District'
p271
I2502
sS'Maharashtrawadi Gomantak Party politicians'
p272
I1485
sS'Pashtun dynasties'
p273
I1621
sS'Indian political party founders'
p274
I1133
sS'United States presidential electors, 1828'
p275
I3531
sS'English jewellers'
p276
I3865
sS'People from Thane'
p277
I2640
sS'People from Banda district'
p278
I1743
sS'English butchers'
p279
I3884
sS'United States presidential electors, 1820'
p280
I3525
sS'Indian artists'
p281
I554
sS'Indian expatriates in Spain'
p282
I792
sS'People from Ramgarh district'
p283
I2482
sS'United States presidential electors, 1824'
p284
I3505
sS'20th-century Indian judges'
p285
I79
sS'English people of Estonian descent'
p286
I4053
sS'People from Panihati'
p287
I2408
sS'Indian diaspora in Oceania'
p288
I677
sS'Indian people of Turkish descent'
p289
I1102
sS'Disciples of Gautama Buddha'
p290
I400
sS'Andaman and Nicobar Islands politicians'
p291
I237
sS'Ugandan people of Indian descent'
p292
I3005
sS'American electricians'
p293
I3366
sS'17th-century Indian scientists'
p294
I31
sS'Indian female models'
p295
I806
sS'Canadian people of Indo-Fijian descent'
p296
I335
sS'People from Bharatpur district'
p297
I1789
sS'Morier family'
p298
I3721
sS'People from Katihar district'
p299
I2155
sS'People from Nainital district'
p300
I2346
sS'Curtis family (London)'
p301
I3732
sS'People from Srinagar district'
p302
I2611
sS'Indian women lawyers'
p303
I1308
sS'Paramahansa Yogananda'
p304
I1614
sS'Indian expatriates in Malaysia'
p305
I779
sS'Bihar politician stubs'
p306
I298
sS'Indian emigrants to Ireland'
p307
I716
sS'People from Gaya district'
p308
I1985
sS'People from Chandel district'
p309
I1844
sS'Sena dynasty'
p310
I2908
sS'People from Barabanki district'
p311
I1753
sS"Indian People's Front politicians"
p312
I1109
sS'People from Chittoor district'
p313
I1866
sS'Brahmos'
p314
I310
sS'Unidentified American children'
p315
I3147
sS'Indian science and technology awards'
p316
I1195
sS'Sportspeople from Kozhikode'
p317
I2948
sS'American military personnel killed in action'
p318
I3241
sS'20th-century Indian politicians'
p319
I89
sS'Indian male social workers'
p320
I933
sS'Criminals from Maharashtra'
p321
I377
sS'English people of Emirati descent'
p322
I4027
sS'Criminals from Mumbai'
p323
I378
sS'People from East Jaintia Hills district'
p324
I1945
sS'Bal Gangadhar Tilak'
p325
I275
sS'15th-century Indian people by occupation'
p326
I12
sS'People by county in England'
p327
I4150
sS'People from Agartala'
p328
I1659
sS'People from Nagaon district'
p329
I2340
sS'17th-century Indian musicians'
p330
I26
sS'Odisha academics'
p331
I1588
sS'De Beaufort family'
p332
I3725
sS'English comedians'
p333
I3799
sS'Activists from Sikkim'
p334
I163
sS'Indian writer stubs'
p335
I1336
sS'People from Vizianagaram'
p336
I2723
sS'15th-century Indian people'
p337
I11
sS'American people of Parsi descent'
p338
I3493
sS'English people of Montserratian descent'
p339
I4031
sS'Wikipedia categories named after American filmmakers'
p340
I3234
sS'Indian scientists by state'
p341
I1200
sS'People from Kiphire district'
p342
I2176
sS'People from Jharkhand'
p343
I2103
sS'People from Amethi district'
p344
I1689
sS'People from Sirsa district'
p345
I2578
sS'United States biography book stubs'
p346
I3195
sS'Brudenell-Bruce family'
p347
I3657
sS'People from Barpeta district'
p348
I1769
sS'Indian American'
p349
I537
sS'Chief ministers of Puducherry'
p350
I356
sS'People from Fatehpur district'
p351
I1967
sS'Hong Kong people of Parsi descent'
p352
I497
sS'Activists from Gujarat'
p353
I147
sS'People from West Godavari district'
p354
I2737
sS'English diplomats'
p355
I3863
sS'People from Koppal district'
p356
I2195
sS'Indian systems scientists'
p357
I1254
sS'People from Shimla'
p358
I2553
sS'Heads of state of England'
p359
I3899
sS'People from Buldhana district'
p360
I1831
sS'English people by century'
p361
I4105
sS'Indian noble families'
p362
I1012
sS'People from Uttarkashi'
p363
I2700
sS'English accountants'
p364
I3845
sS'Lists of people from Uttarakhand'
p365
I1445
sS'Indian people of Russian descent'
p366
I1088
sS'People of British Burma'
p367
I2754
sS'People from Pimpri-Chinchwad'
p368
I2430
sS'English legendary characters'
p369
I3599
sS'Indian film people'
p370
I822
sS'People from Guntur district'
p371
I2016
sS'People by former county in England'
p372
I4151
sS'People from Ajmer district'
p373
I1669
sS'Women of the Mughal Empire'
p374
I3080
sS'Indian Latin American'
p375
I902
sS'People by district in India'
p376
I1651
sS'English goldsmiths'
p377
I3889
sS'Indian people of Scottish descent'
p378
I1090
sS'People from Kaushambi district'
p379
I2158
sS'American rhetoricians'
p380
I3414
sS'Political families of India'
p381
I2779
sS'Indian rebels'
p382
I1171
sS'Daman and Diu politicians'
p383
I389
sS'Order of the Indian Empire'
p384
I1593
sS'English foresters'
p385
I3872
sS'People from Chikkaballapur district'
p386
I1861
sS'American people by century'
p387
I3449
sS'Indian emigrants to France'
p388
I712
sS'11th-century Indian women'
p389
I3
sS'English beekeepers'
p390
I3923
sS'American families by ancestry'
p391
I3152
sS'African people of Indian descent'
p392
I191
sS'Houses in the United States by family'
p393
I3157
sS'Fiji Indian organisations'
p394
I445
sS'Indian military personnel killed in action'
p395
I968
sS'Rathbone family'
p396
I3654
sS'18th-century Indian sportspeople'
p397
I44
sS'People by city in Kerala'
p398
I1638
sS'Indian Jain religious leaders'
p399
I886
sS'English people of Nigerian descent'
p400
I4061
sS'Chaplin family'
p401
I3663
sS'Followers of Sathya Sai Baba'
p402
I455
sS'Indian academics by state'
p403
I512
sS'People by city in Puducherry'
p404
I1645
sS'Kakatiya dynasty'
p405
I1381
sS'People from Saran district'
p406
I2527
sS'English people of Austrian descent'
p407
I4010
sS'American sportspeople of Indian descent'
p408
I219
sS'Indian statisticians'
p409
I1243
sS'American nomads'
p410
I3107
sS'People from Pali, Rajasthan'
p411
I2402
sS'Indian people of Yemeni descent'
p412
I1107
sS'Indian beauty pageant winners'
p413
I571
sS'Kalakshetra alumni'
p414
I1382
sS'Ancient Indian mathematicians'
p415
I228
sS'American surveyors'
p416
I3291
sS'Sur Empire'
p417
I2968
sS'Indian magicians'
p418
I917
sS'Recipients of the Jnanpith Award'
p419
I2845
sS'Satyajit Ray'
p420
I2895
sS'Indian music educators'
p421
I987
sS'West Indies merchants'
p422
I3874
sS'English people of Arab descent'
p423
I3979
sS'Indian aviators'
p424
I568
sS'Criminals from Haryana'
p425
I376
sS'Mayors of Kochi'
p426
I1512
sS'People from Jammu and Kashmir by occupation'
p427
I2085
sS'People from Sikar district'
p428
I2566
sS'English Hindus'
p429
I3634
sS'People from Mizoram by district'
p430
I2305
sS'People from Ramban district'
p431
I2481
sS'People from Ranchi'
p432
I2485
sS'People by city in Maharashtra'
p433
I1640
sS'Indian National Congress (Socialist)'
p434
I1003
sS'People from Tumkur district'
p435
I2678
sS'People from Puri district'
p436
I2453
sS'Indian pacifists'
p437
I1024
sS'English people of Saint Kitts and Nevis descent'
p438
I4085
sS'American make-up artists'
p439
I3278
sS'Indian people of Belgian descent'
p440
I1058
sS'South Asian American organizations'
p441
I2939
sS'Indian Jains by occupation'
p442
I889
sS'United States presidential electors, 1792'
p443
I3520
sS'Bharatiya Jan Sangh politicians'
p444
I290
sS'People from Budaun district'
p445
I1828
sS'Indian expatriates in Nigeria'
p446
I784
sS'Indian women in war'
p447
I1304
sS'United States presidential electors, 1988'
p448
I3519
sS'People from Balaghat district'
p449
I1734
sS'Indian male television producers'
p450
I936
sS'Indian people of World War II'
p451
I1106
sS'People from Zunheboto district'
p452
I2750
sS'Baroda State'
p453
I280
sS'Ramakrishna Mission'
p454
I2827
sS'People from East Godavari district'
p455
I1944
sS'Indian Hindu religious leaders'
p456
I848
sS'Ancient Indian women'
p457
I234
sS'People from Pakur district'
p458
I2394
sS'People by city in Assam'
p459
I1627
sS'People from Kollam district'
p460
I2193
sS'People from Dharwad'
p461
I1918
sS'People from Theni district'
p462
I2646
sS'Mayors of Indore'
p463
I1510
sS'People from Dang district'
p464
I1886
sS'Indian people by century'
p465
I1027
sS"Indian People's Theatre Association people"
p466
I1110
sS'Indian women choreographers'
p467
I1292
sS'English people of Ivorian descent'
p468
I4039
sS'American families by state'
p469
I3151
sS'Indian male writers'
p470
I937
sS'American child models'
p471
I3144
sS'Indian emigrants to Kenya'
p472
I719
sS'People from Bandra'
p473
I1745
sS'People from Koriya district'
p474
I2199
sS'Indian revolutionaries'
p475
I1179
sS'United States presidential electors, 1789'
p476
I3542
sS'Women from Assam'
p477
I3041
sS'People from Koderma district'
p478
I2182
sS'19th-century Indian sportspeople'
p479
I66
sS'Luttrell family (of Dunster)'
p480
I3701
sS'English people of Uruguayan descent'
p481
I4056
sS'People from Lohardaga district'
p482
I2235
sS'People from Dakshina Kannada district'
p483
I1880
sS'Biographical museums in Wiltshire'
p484
I3954
sS'American casualties of World War I'
p485
I3237
sS'American architects'
p486
I3273
sS'Women in the Indian military'
p487
I3072
sS'People from Sirsa, Haryana'
p488
I2579
sS'People from Raigad district'
p489
I2460
sS'Indian writers by city'
p490
I1332
sS'People from Cuttack'
p491
I1874
sS'People from Umaria district'
p492
I2689
sS'Shah Rukh Khan'
p493
I2916
sS'Parsi people'
p494
I1617
sS'People from Sikar'
p495
I2565
sS'Indian magazine founders'
p496
I915
sS'People from Dindori district'
p497
I1931
sS'English people of French-Canadian descent'
p498
I4045
sS'Mughal princesses'
p499
I1553
sS'People from Siliguri'
p500
I2571
sS'All Jharkhand Students Union politicians'
p501
I205
sS'Indian sculptors by century'
p502
I1204
sS'Gemma Doyle Trilogy'
p503
I464
sS'Indian Salafis'
p504
I1187
sS'Indian female royalty'
p505
I809
sS'People from Barpeta'
p506
I1768
sS'Works by Bharati Mukherjee'
p507
I3087
sS'American judges'
p508
I3277
sS'Indian public relations people'
p509
I1161
sS'Indian people of Jewish descent'
p510
I1078
sS'People from Dhalai district'
p511
I1910
sS'Bowring family'
p512
I3687
sS'People from Hyderabad district, India'
p513
I2054
sS'Women of the Hyderabad State'
p514
I3074
sS'People from Bangalore Urban district'
p515
I1749
sS'People from West Khasi Hills district'
p516
I2740
sS'Sachin Tendulkar'
p517
I2880
sS'People from Thoothukudi'
p518
I2651
sS'People from Assam'
p519
I1719
sS'English people of Bulgarian descent'
p520
I4094
sS'15th-century Indian artists'
p521
I10
sS'Indian medical biography stubs'
p522
I950
sS'People from Bikaner district'
p523
I1816
sS'People from Prakasam district'
p524
I2437
sS'English people of Republic of the Congo descent'
p525
I4100
sS'Politicians from Varanasi'
p526
I2788
sS'Indian humanists'
p527
I854
sS'United States presidential electors, 1856'
p528
I3513
sS'Adaptations of works by R. K. Narayan'
p529
I175
sS'Indian journalist stubs'
p530
I898
sS'American victims of crime'
p531
I3563
sS'Lists of American people by educational affiliation'
p532
I3191
sS'People from Kolar district'
p533
I2185
sS'Shah dynasty'
p534
I2914
sS'People from Pandalam'
p535
I2407
sS'Sangeetha Kalanidhi recipients'
p536
I2889
sS'American Zoroastrians'
p537
I3464
sS'Indian farmers'
p538
I802
sS'10th-century Indian people'
p539
I0
sS'21st-century Indian writers'
p540
I118
sS'American astronauts'
p541
I3287
sS'People from Gaya, India'
p542
I1986
sS'American politics biographical stubs'
p543
I3218
sS'Postgate family'
p544
I3744
sS'People from Sambhal district'
p545
I2520
sS'Indian music critics'
p546
I986
sS'People from Ramanathapuram district'
p547
I2480
sS'American female musicians of Indian descent'
p548
I214
sS'Indian film actor stubs'
p549
I814
sS'Puerto Rican people stubs'
p550
I3224
sS'American writer stubs'
p551
I3223
sS'Indian Ahmadis'
p552
I534
sS'People from Udalguri district'
p553
I2681
sS'AIADMK politician stubs'
p554
I193
sS'Indian merchants'
p555
I957
sS'Indian ceramists'
p556
I595
sS'People from Firozabad district'
p557
I1970
sS'Biographical museums in Devon'
p558
I3959
sS'Indian engineers by century'
p559
I745
sS'American mercenaries'
p560
I3334
sS'American consultants'
p561
I3358
sS'Martiniquais people of Indian descent'
p562
I1501
sS'English writer stubs'
p563
I4121
sS'American postmasters'
p564
I3386
sS'British Indian media'
p565
I317
sS'Indian Administrative Service officers'
p566
I525
sS'Indian Institute of Technology Guwahati people'
p567
I865
sS'People from Ri-Bhoi district'
p568
I2498
sS'Indian mining engineers'
p569
I974
sS'English Buddhists'
p570
I3630
sS'People from Dibang Valley district'
p571
I1926
sS'Rai Sahibs'
p572
I2817
sS'Indian Shaivites'
p573
I1208
sS'Adivasi literature'
p574
I180
sS'Spanish people of Indian descent'
p575
I2941
sS'Lists of Indians by state'
p576
I1434
sS'People from Jharkhand by district'
p577
I2104
sS'Mayors of Vadodara'
p578
I1519
sS'20th-century Indian scientists'
p579
I90
sS'Emeritus Professors in India'
p580
I417
sS'People from Lunglei district'
p581
I2246
sS'Lists of people from Tamil Nadu'
p582
I1444
sS'People from Chamoli district'
p583
I1840
sS'Surat municipal councillors'
p584
I2967
sS'American women of Indian descent'
p585
I223
sS'Meghalaya academics'
p586
I1524
sS'Indian curators'
p587
I640
sS'Belgian people of Indian descent'
p588
I282
sS'English Esperantists'
p589
I3603
sS'American academics'
p590
I3347
sS'People from Bulandshahr district'
p591
I1830
sS'Members of the Mizoram Legislative Assembly'
p592
I1532
sS'English documentary filmmakers'
p593
I3800
sS'Indian expatriates in Bangladesh'
p594
I763
sS'People from Uttar Pradesh by occupation'
p595
I2705
sS'English astronomers'
p596
I3844
sS'American urban planners'
p597
I3280
sS'Bihar academics'
p598
I295
sS'Lists of Indian women'
p599
I1437
sS'American actuaries'
p600
I3370
sS'Indian emigrants'
p601
I703
sS'Seuna (Yadava) dynasty'
p602
I2912
sS'People from Panipat'
p603
I2409
sS'English ballet dancers'
p604
I3821
sS'Mount family'
p605
I3749
sS'Atal Bihari Vajpayee'
p606
I264
sS'Indian people of Icelandic descent'
p607
I1072
sS'English people of Zimbabwean descent'
p608
I4096
sS'Beauty pageant contestants from India'
p609
I281
sS'Sportspeople from Indore'
p610
I2946
sS'People from Jhansi district'
p611
I2102
sS'Indian emigrants to Botswana'
p612
I707
sS'American Christians'
p613
I3452
sS'Sindhi diaspora'
p614
I2932
sS'21st-century Indian journalists'
p615
I102
sS'Indian people of Swiss descent'
p616
I1098
sS'Scientists from Andaman and Nicobar Islands'
p617
I2901
sS'Indian people of Assyrian descent'
p618
I1054
sS'American people by location and occupation'
p619
I3431
sS'American classical scholars'
p620
I3327
sS'People from Sri Ganganagar'
p621
I2605
sS'American winemakers'
p622
I3315
sS'People by populated place in the United States by state'
p623
I3251
sS'Ezhava'
p624
I426
sS'Bengali diaspora'
p625
I286
sS'Cultural depictions of the Wright brothers'
p626
I3588
sS'American people with disabilities'
p627
I3108
sS'16th-century Indian people'
p628
I17
sS'American adoptees'
p629
I3562
sS'People from West Bengal by occupation'
p630
I2732
sS'People from Ranchi district'
p631
I2486
sS'Activists from Maharashtra'
p632
I155
sS'Malayali organizations'
p633
I1491
sS'Karnataka politician stubs'
p634
I1391
sS'Immigrants to India'
p635
I507
sS'People from Pune'
p636
I2447
sS'People from Changlang district'
p637
I1849
sS'Indian male musicians'
p638
I931
sS'People from Hailakandi district'
p639
I2023
sS'People from Andhra Pradesh by district'
p640
I1702
sS'People from Tikamgarh'
p641
I2656
sS'Indian multimedia artists'
p642
I982
sS'Activists from Madhya Pradesh'
p643
I154
sS'People from Gariaband district'
p644
I1983
sS'American artist stubs'
p645
I3202
sS'People from Gandhinagar'
p646
I1978
sS'Zimbalist family'
p647
I3170
sS'Ilaiyaraaja albums'
p648
I503
sS'Indian medical academics'
p649
I948
sS'People from Dehradun district'
p650
I1900
sS'Diwans of Cochin'
p651
I401
sS'People from Rudraprayag district'
p652
I2504
sS'Punjabi-Canadian culture'
p653
I2807
sS'People from Seoni district'
p654
I2536
sS'Sikkim Sangram Parishad politicians'
p655
I2931
sS'Rolfe family of Virginia'
p656
I3693
sS'Recipients of the Padma Shri in trade and industry'
p657
I2852
sS'Indian Sikhs'
p658
I1213
sS'English people of Belarusian descent'
p659
I4067
sS'English actor stubs'
p660
I4113
sS'American people in rail transportation'
p661
I3363
sS'Indian Jain politicians'
p662
I885
sS'Indian civil engineers'
p663
I618
sS'People from Nagpur district'
p664
I2345
sS'People from Chhatarpur'
p665
I1854
sS'English men by occupation'
p666
I3914
sS'Indian emigrants to Oman'
p667
I724
sS'English people of Latvian descent'
p668
I4058
sS'People from Ashoknagar district'
p669
I1718
sS'English constitutionalists'
p670
I3767
sS'Indian people imprisoned abroad'
p671
I1042
sS'People of Kannada descent'
p672
I2763
sS'Activists from Jammu and Kashmir'
p673
I150
sS'Schools affiliated with the Sri Aurobindo Ashram'
p674
I2899
sS'English people of Ghanaian descent'
p675
I4005
sS'English cartographers'
p676
I3868
sS'20th-century Indian jurists'
p677
I80
sS'Women from Sikkim'
p678
I3064
sS'People by county in the United States'
p679
I3242
sS'English artists'
p680
I3756
sS'Mayors of Kozhikode'
p681
I1513
sS'English people of Eritrean descent'
p682
I4064
sS'20th-century Indian philosophers'
p683
I88
sS'English encyclopedists'
p684
I3876
sS'People from Kasganj district'
p685
I2152
sS'Indian editors'
p686
I697
sS'Businesspeople of Indian descent'
p687
I332
sS'People of Indian descent'
p688
I2758
sS'English hedge fund managers'
p689
I3924
sS'Recipients of the Padma Bhushan in social work'
p690
I2848
sS'Jolliffe family'
p691
I3680
sS'Indian Marxist historians'
p692
I940
sS'18th-century Indian painters'
p693
I39
sS'Vidya Balan'
p694
I3024
sS'Maharana Pratap'
p695
I1481
sS'American models'
p696
I3256
sS'Indian film award winners'
p697
I815
sS'Indian police chiefs'
p698
I1127
sS'English people of Argentine descent'
p699
I4044
sS'7th-century BC Indian people'
p700
I130
sS'Indian people of Chinese descent'
p701
I1062
sS'American Taoists'
p702
I3463
sS'English people of Belgian descent'
p703
I4038
sS'Carline family'
p704
I3729
sS'American people by religion'
p705
I3120
sS'Indian satirists'
p706
I1188
sS'Recipients of the Indira Gandhi Peace Prize'
p707
I2843
sS'Indian diaspora in Europe'
p708
I663
sS'Attorneys General of India'
p709
I266
sS'People from Maheshtala'
p710
I2263
sS'Indo-Fijian diaspora'
p711
I1342
sS'Actors by city or town in India'
p712
I171
sS'Nawabs of Dhaka'
p713
I1575
sS'English stunt performers'
p714
I3869
sS'American Odd Fellows'
p715
I3129
sS'Indian educators by state'
p716
I701
sS'People from Ajmer'
p717
I1668
sS'People from Dhar district'
p718
I1916
sS'Telangana politician stubs'
p719
I2985
sS'Indian Shia Muslims'
p720
I1210
sS'People of the American Old West'
p721
I3445
sS'Indian television people'
p722
I1261
sS'16th-century Indian scientists'
p723
I21
sS'Lok Sabha members from Mizoram'
p724
I1456
sS'People from Panipat district'
p725
I2410
sS'People from Arunachal Pradesh by district'
p726
I1713
sS'Activists from Punjab, India'
p727
I161
sS'Indian emigrants to Israel'
p728
I717
sS'English blacksmiths'
p729
I3904
sS'Indian international schools in the United Arab Emirates'
p730
I875
sS'People from Mirzapur district'
p731
I2303
sS'Mughal Empire poets'
p732
I1549
sS'People from Jamnagar district'
p733
I2089
sS'People from Pauri Garhwal district'
p734
I2425
sS'English people by war'
p735
I4108
sS'Nigerian people of Indian descent'
p736
I1580
sS'Hindustani Awam Morcha politicians'
p737
I493
sS'People from Tiruvallur district'
p738
I2667
sS'People from Haryana'
p739
I2034
sS'American medical biography stubs'
p740
I3213
sS'Indian Hindus'
p741
I849
sS'Indian women by occupation by state'
p742
I1290
sS'English religious biography stubs'
p743
I4116
sS'English Olympic medallists'
p744
I3967
sS'English comics artists'
p745
I3871
sS'15th-century Indian women'
p746
I14
sS'British India emigrants to the Ottoman Empire'
p747
I313
sS'Indian expatriates in the Philippines'
p748
I795
sS'Indian film choreographers'
p749
I817
sS'Indian expatriates in Finland'
p750
I768
sS'Kisan Mazdoor Praja Party politicians'
p751
I1406
sS'People from Anand district'
p752
I1696
sS'Nizams of Hyderabad'
p753
I1581
sS'Indian emigrants to Norway'
p754
I723
sS'People from East Khasi Hills district'
p755
I1947
sS'English people of Sierra Leonean descent'
p756
I4032
sS'United States presidential electors, 1796'
p757
I3521
sS'American fishers'
p758
I3350
sS'American choreographers'
p759
I3424
sS'People from Tiruchirappalli district'
p760
I2661
sS'People from Avadi'
p761
I1726
sS'People from Arunachal Pradesh by occupation'
p762
I1714
sS'Party of Democratic Socialism (India) politicians'
p763
I1620
sS'Indian medical researchers'
p764
I952
sS'People from Kheda district'
p765
I2171
sS'Boone family (pioneers)'
p766
I3162
sS'Military families of the United States'
p767
I3158
sS'English people of Hong Kong descent'
p768
I4077
sS'Women in India'
p769
I3071
sS'Indian painters by century'
p770
I1026
sS'Assamese people'
p771
I260
sS'Chahamanas of Jalor'
p772
I337
sS'People from Ariyalur district'
p773
I1710
sS'Indian actors by medium'
p774
I520
sS'Malawian people of Indian descent'
p775
I1489
sS'Indian women television producers'
p776
I1326
sS'Women of the Kingdom of Mysore'
p777
I3076
sS'People from Durg'
p778
I1938
sS'Buildings and structures by Indian architects'
p779
I324
sS'People from Benaulim'
p780
I1783
sS'English neopagans'
p781
I3635
sS'People from Raigarh district'
p782
I2461
sS'People from Budgam district'
p783
I1829
sS'Biographical museums in Hertfordshire'
p784
I3960
sS'Mewar dynasty'
p785
I1535
sS'People from East Garo Hills district'
p786
I1943
sS'People from Tiruvannamalai district'
p787
I2668
sS'Indian Hindu missionaries'
p788
I846
sS'Indian war casualties'
p789
I1278
sS'English people of African descent'
p790
I3981
sS'People from Hamirpur district, Himachal Pradesh'
p791
I2024
sS'People from Gandhinagar district'
p792
I1979
sS'American jurists'
p793
I3263
sS'English editors'
p794
I3833
sS'People from Tehri'
p795
I2633
sS'People from Balrampur district, Chhattisgarh'
p796
I1741
sS'People from Lucknow district'
p797
I2243
sS'American people of the Indian Wars'
p798
I3570
sS'People from Janjgir-Champa district'
p799
I2093
sS'People from West Delhi district'
p800
I2734
sS'Films directed by Raj Kapoor'
p801
I451
sS'Black English people by occupation'
p802
I3885
sS'Vishva Hindu Parishad members'
p803
I3027
sS'People from Balod district'
p804
I1739
sS'Lok Janshakti Party politicians'
p805
I1455
sS'English dentists'
p806
I3810
sS'American female models of Indian descent'
p807
I213
sS'People from East Singhbhum district'
p808
I1950
sS'People from Fazilka district'
p809
I1968
sS'Sheriffs of Kolkata'
p810
I2919
sS'People from Bhind district'
p811
I1797
sS'English people of Lithuanian descent'
p812
I3999
sS'Indian actors who committed suicide'
p813
I523
sS'People from Faridkot district'
p814
I1959
sS'Wadiyar dynasty'
p815
I3028
sS'Actors from Kozhikode'
p816
I174
sS'Indian National Congress politician stubs'
p817
I1002
sS'English people of Norwegian descent'
p818
I4002
sS'People from Kurung Kumey district'
p819
I2217
sS'Indian male comedians'
p820
I923
sS'Sports events founded by Sri Chinmoy'
p821
I2943
sS'Lucas family'
p822
I3695
sS'People from Neemuch district'
p823
I2369
sS'Women from Punjab, India'
p824
I3062
sS'People from Vizianagaram district'
p825
I2724
sS'Sportspeople from Surat'
p826
I2951
sS'English people with disabilities'
p827
I3615
sS'Activists from Puducherry'
p828
I160
sS'People from Pune district'
p829
I2448
sS'Black English people'
p830
I4020
sS'United States presidential electors, 1800'
p831
I3537
sS'Swatantra Party politicians'
p832
I2973
sS'United States presidential electors, 1804'
p833
I3536
sS'People from Meerut district'
p834
I2296
sS'Indian communists'
p835
I628
sS'Ajay Devgan'
p836
I194
sS'Indian people of Soviet descent'
p837
I1094
sS'Memorials to Swami Vivekananda'
p838
I1534
sS'Indian theatre directors'
p839
I1265
sS'Indian people of Armenian descent'
p840
I1052
sS'Artists from Kochi'
p841
I251
sS'American religious leaders'
p842
I3289
sS'21st-century Indian dancers'
p843
I99
sS'Women from Telangana'
p844
I3066
sS'People from Hapur'
p845
I2027
sS'Aam Aadmi Party politicians'
p846
I136
sS'Bene Israel'
p847
I284
sS'People from Howrah'
p848
I2051
sS'People from Singrauli district'
p849
I2574
sS'Indian anti-communists'
p850
I542
sS'People from Barmer, Rajasthan'
p851
I1765
sS'Arijit Singh songs'
p852
I247
sS'People from Khowai district'
p853
I2173
sS'American academic biography stubs'
p854
I3199
sS'People from Mahbubnagar district'
p855
I2260
sS'Telugu people'
p856
I2990
sS'Maternity in India'
p857
I1504
sS'Prisoners and detainees from Assam'
p858
I2801
sS'People from Karnataka by occupation'
p859
I2149
sS'American public transportation executives'
p860
I3369
sS'Kabul Shahi'
p861
I1379
sS'Chandelas of Jejakabhukti'
p862
I342
sS'American media people'
p863
I3415
sS'People from Reasi district'
p864
I2493
sS'Indian astrologers'
p865
I559
sS'People by city in Punjab, India'
p866
I1646
sS'Bassett family (Devon &amp; Cornwall)'
p867
I3658
sS'Family of Mirza Ghulam Ahmad'
p868
I428
sS'People from Rajgarh district'
p869
I2470
sS'Lists of Indian people by occupation'
p870
I1431
sS'People from Majuli district'
p871
I2267
sS'Manmohan Singh'
p872
I1498
sS'People from Baramulla district'
p873
I1756
sS'Indian people by occupation'
p874
I1029
sS'Sportspeople from Vijayawada'
p875
I2954
sS'English clergy'
p876
I3772
sS'Indian illustrators'
p877
I856
sS'Biographical museums in Surrey'
p878
I3963
sS'People from Darjeeling'
p879
I1890
sS'Political office-holders in India by state'
p880
I2781
sS'English award winners'
p881
I3609
sS'Biographical museums in Buckinghamshire'
p882
I3942
sS'Romani comics characters'
p883
I2874
sS'Indian humanitarians'
p884
I855
sS'People from Dehradun'
p885
I1899
sS'English people of Russian descent'
p886
I3991
sS'People from Kabirdham district'
p887
I2114
sS'English people by century and occupation'
p888
I3928
sS'People from Malihabad'
p889
I2272
sS'Welfare Party of India politicians'
p890
I3029
sS'Indian political scientists'
p891
I1135
sS'People from Warangal district'
p892
I2726
sS'Srinivasa Ramanujan'
p893
I2961
sS'American horticulturists'
p894
I3399
sS'English inventors'
p895
I3765
sS'English trade unionists'
p896
I3805
sS'People from Bilaspur district, Himachal Pradesh'
p897
I1819
sS'Fictional British people of Indian descent'
p898
I436
sS'Indian writers by state'
p899
I1335
sS'People from Kota, Rajasthan'
p900
I2201
sS'Indian emigrants to Mexico'
p901
I720
sS'Recipients of the Kalaimamani Award'
p902
I2846
sS'People from Mahisagar district'
p903
I2264
sS'Rajkot municipal councillors'
p904
I2823
sS'English music people'
p905
I3908
sS'Jammu and Kashmir Peoples Democratic Party politicians'
p906
I1356
sS'English academics'
p907
I3759
sS'Bohun family'
p908
I3707
sS'Lists of people of Indian descent'
p909
I1447
sS'Goa academics'
p910
I470
sS'Indian Civil Service (British India) officers'
p911
I620
sS'People from Dewas'
p912
I1908
sS'People from Tirupur'
p913
I2665
sS'American hairdressers'
p914
I3354
sS'English Universalists'
p915
I3642
sS'Indian muftis'
p916
I980
sS'Lethbridge family'
p917
I3740
sS'English booksellers'
p918
I3896
sS'Kannada organizations in North America'
p919
I1387
sS'Activists from Uttarakhand'
p920
I167
sS'Indian earth scientists'
p921
I696
sS'Indian women architects'
p922
I1285
sS'Recipients of the Rajiv Gandhi Khel Ratna'
p923
I2858
sS'People from Lakshadweep by district'
p924
I2226
sS'United States presidential electors, 1808'
p925
I3524
sS'Indian Deputy Prime Ministers'
p926
I647
sS'Indian logicians'
p927
I913
sS'Mughal nobility'
p928
I1551
sS'Paralympic athletes of India'
p929
I1609
sS'People from Jalaun district'
p930
I2075
sS'People from Peren district'
p931
I2427
sS'Recipients of the Pravasi Bharatiya Community Service Award'
p932
I2856
sS'Indian nurses'
p933
I1016
sS'17th-century Indian educators'
p934
I25
sS'Indian archaeologists'
p935
I543
sS'People from Bongaigaon district'
p936
I1824
sS'2nd-century BC Indian people'
p937
I119
sS'Indian football biography stubs'
p938
I831
sS'Indian film score composers'
p939
I824
sS'English architects'
p940
I3783
sS'Indian sportspeople by century'
p941
I1234
sS'American people of North American descent'
p942
I3491
sS'21st-century Indian monks'
p943
I106
sS'English-language Indian films'
p944
I420
sS'English genealogists'
p945
I3802
sS'People from Barasat'
p946
I1758
sS'English landowners'
p947
I3886
sS'Marumalarchi Dravida Munnetra Kazhagam politicians'
p948
I1502
sS'Holt family'
p949
I3655
sS'Jayalalithaa'
p950
I1365
sS'Maharajas of Bundi'
p951
I1467
sS'American Rastafarians'
p952
I3466
sS'People from Jind district'
p953
I2108
sS'Fictional English people by ethnic or national origin'
p954
I4162
sS'English terrorism victims'
p955
I3755
sS'Pratibha Patil'
p956
I2795
sS'American chefs'
p957
I3253
sS'Indian women judges'
p958
I1306
sS'English archaeologists'
p959
I3760
sS'People from Kerala'
p960
I2161
sS'Punjabi diaspora'
p961
I2808
sS'Indian emigrants to the United States'
p962
I737
sS'Recipients of the Saraswati Samman Award'
p963
I2859
sS'20th-century Indian architects'
p964
I72
sS'Indian diaspora history'
p965
I655
sS'Women from Arunachal Pradesh'
p966
I3040
sS'Indian people of Yugoslav descent'
p967
I1108
sS'Kazi Nazrul Islam'
p968
I1395
sS'Mughal Empire Sufis'
p969
I1550
sS'Indian people of European descent'
p970
I1068
sS'People from Nadiad'
p971
I2335
sS'American legal scholars'
p972
I3352
sS'People from Kurnool district'
p973
I2215
sS'People from Champhai district'
p974
I1842
sS'Indian musicologists'
p975
I992
sS'People from Central Delhi district'
p976
I1836
sS'Indian jurists'
p977
I900
sS'People from South West Khasi Hills district'
p978
I2604
sS'Tulu people'
p979
I3003
sS'Biographical museums in Bedfordshire'
p980
I3955
sS'Fictional people from London'
p981
I4157
sS'Indian politicians disqualified'
p982
I1146
sS'Indian diaspora in fiction'
p983
I664
sS'English geographers'
p984
I3774
sS'Indian diaspora in Suriname'
p985
I683
sS'People from Nalgonda'
p986
I2350
sS'Tritton family'
p987
I3722
sS'Desi films'
p988
I395
sS'People from Mysore district'
p989
I2333
sS'People from Satna district'
p990
I2530
sS'English people of Romanian descent'
p991
I3990
sS'United States presidential electors, 1816'
p992
I3499
sS'People from Dhanbad'
p993
I1912
sS'American Santer\xc3\xadans'
p994
I3470
sS'Meher Baba templates'
p995
I1527
sS'Serbian people of Indian descent'
p996
I2910
sS'People from Delhi by district'
p997
I1902
sS'English people of German descent'
p998
I3986
sS'Indian costume designers'
p999
I635
sS'American rebels'
p1000
I3295
sS'United States military personnel stubs'
p1001
I3214
sS'People from Nagpur'
p1002
I2344
sS'Indian diaspora in Africa'
p1003
I657
sS'American missionaries'
p1004
I3307
sS'Benyon family'
p1005
I3750
sS'Indian women designers'
p1006
I1294
sS'People from Junagadh'
p1007
I2112
sS'People from Lohit district'
p1008
I2236
sS'People from Morbi district'
p1009
I2315
sS'People from Rewari district'
p1010
I2497
sS'Indian literary historians'
p1011
I912
sS'People from Solapur'
p1012
I2587
sS'Danish people of Indian descent'
p1013
I391
sS'Puerto Rican people of Indian descent'
p1014
I2805
sS'People from Palwal district'
p1015
I2403
sS'People from Moga district'
p1016
I2308
sS'Indian science fellowships'
p1017
I1196
sS'English people of Burundian descent'
p1018
I4095
sS'English writers'
p1019
I3850
sS'English people of Antigua and Barbuda descent'
p1020
I3969
sS'People from Baranagar'
p1021
I1757
sS'Indian expatriates in Mexico'
p1022
I780
sS'English lawyers'
p1023
I3790
sS'Narendra Modi'
p1024
I1567
sS'Artists from Kozhikode'
p1025
I252
sS'Indian emigrants to Belgium'
p1026
I706
sS'Indian women engineers'
p1027
I1298
sS'Tennyson family'
p1028
I3682
sS'Women from Tamil Nadu'
p1029
I3065
sS'Indian adoptees'
p1030
I526
sS'People from Shivpuri district'
p1031
I2557
sS'Politicians from Jaipur'
p1032
I2783
sS'People from Tiruvarur district'
p1033
I2669
sS'People from Rampur, Uttar Pradesh'
p1034
I2484
sS'Indian people of Pakistani descent'
p1035
I1084
sS'American genealogists'
p1036
I3332
sS'Cultural depictions of Presidents of the United States'
p1037
I3587
sS'Dodderidge family'
p1038
I3664
sS'Indian philosophers by century'
p1039
I1118
sS'Indian diaspora in Singapore'
p1040
I680
sS'People from Saharanpur district'
p1041
I2510
sS'People from Arrah'
p1042
I1711
sS'20th-century Indian educators'
p1043
I76
sS'American child activists'
p1044
I3142
sS'People from Karimnagar'
p1045
I2143
sS'American prisoners of war'
p1046
I3240
sS'People from Moradabad'
p1047
I2313
sS'People from Pudukkottai district'
p1048
I2445
sS'Indian emigrants to Qatar'
p1049
I726
sS'Indian royalty by century'
p1050
I1183
sS'Durrani dynasty'
p1051
I407
sS'Kerala politician stubs'
p1052
I1399
sS'People from Akola'
p1053
I1671
sS'Telangana Rashtra Samithi politicians'
p1054
I2986
sS'Blind people from India'
p1055
I300
sS'Mexican-American stubs'
p1056
I3193
sS'Indian award winners'
p1057
I569
sS'People from Junagadh district'
p1058
I2113
sS'People from Nagaur district'
p1059
I2342
sS'Indian sailors (sport)'
p1060
I1186
sS'American people of European descent'
p1061
I3488
sS'Indian people of German descent'
p1062
I1070
sS'Uttar Pradesh politician stubs'
p1063
I3015
sS'Dalit writers'
p1064
I388
sS'American people by period'
p1065
I3119
sS'People from Unnao district'
p1066
I2692
sS'Indian politicians by state'
p1067
I1144
sS'People from Churachandpur district'
p1068
I1868
sS'People from Ahmedabad district'
p1069
I1663
sS'People from Cuddalore district'
p1070
I1873
sS'English politician stubs'
p1071
I4120
sS'People from Sukma district'
p1072
I2613
sS'Adi Shankara'
p1073
I177
sS'Indian electrical engineers'
p1074
I702
sS"Women's education in India"
p1075
I3082
sS'American physicians'
p1076
I3264
sS'Indian gamblers'
p1077
I839
sS'Indian social workers'
p1078
I1221
sS'Little Indias'
p1079
I1450
sS'People from Rewa, Madhya Pradesh'
p1080
I2495
sS'Writers of Indian descent'
p1081
I3098
sS'Jharkhand Mukti Morcha politicians'
p1082
I1369
sS'Indian expatriates in Bahrain'
p1083
I762
sS'People from Arwal district'
p1084
I1715
sS'English people of Scottish descent'
p1085
I3978
sS'Post family'
p1086
I3165
sS'9th-century Indian people'
p1087
I135
sS'Fatehpur Sikri'
p1088
I430
sS'People by city in Rajasthan'
p1089
I1647
sS'Madhya Pradesh academics'
p1090
I1460
sS'Indian cricket biography stubs'
p1091
I637
sS'American families'
p1092
I3103
sS'Faculty by university in India'
p1093
I427
sS'Chandra kings'
p1094
I344
sS'People from Hooghly district'
p1095
I2047
sS'21st-century Indian people'
p1096
I109
sS'Indian meteorologists'
p1097
I959
sS'English people by political orientation'
p1098
I3618
sS'English broadcasters'
p1099
I3860
sS'Secretaries General of the Lok Sabha'
p1100
I2907
sS'People from Krishna district'
p1101
I2207
sS'People from Chhindwara district'
p1102
I1859
sS'Indian people by political orientation'
p1103
I1034
sS'Women by state in India'
p1104
I3038
sS'People from Udupi district'
p1105
I2684
sS'People from Kamrup Metropolitan district'
p1106
I2124
sS'People from Panaji'
p1107
I2404
sS'Recipients of the Padma Vibhushan in trade &amp; industry'
p1108
I2855
sS'People from Begusarai'
p1109
I1776
sS'Indian theatre managers and producers'
p1110
I1266
sS'People from Gujarat by occupation'
p1111
I2009
sS'American award winners'
p1112
I3559
sS'People from Sikkim by district'
p1113
I2568
sS'American people of Latin American descent'
p1114
I3489
sS'Indian recipients of British titles'
p1115
I1172
sS'Kochi municipal councillors'
p1116
I1407
sS'Artists by city or town in India'
p1117
I249
sS'United States presidential electors, 1872'
p1118
I3534
sS'People from Sant Kabir Nagar district'
p1119
I2525
sS'Indian expatriates in Pakistan'
p1120
I786
sS'American management scientists'
p1121
I3420
sS'Chief Election Commissioners of India'
p1122
I350
sS'Indian women comedians'
p1123
I1293
sS'Indian sports officials'
p1124
I1232
sS'English people of Manx descent'
p1125
I4013
sS'Native American people by religion'
p1126
I3477
sS'English politicians'
p1127
I3786
sS'English farmers'
p1128
I3785
sS'English people of Democratic Republic of the Congo descent'
p1129
I3973
sS'People from West Siang district'
p1130
I2741
sS'People from Vadodara'
p1131
I2706
sS'English people of Iraqi descent'
p1132
I4016
sS'People from Sagar, Madhya Pradesh'
p1133
I2508
sS'People from Ramanagara district'
p1134
I2479
sS'Legislators in India'
p1135
I1423
sS'English people of Burmese descent'
p1136
I4075
sS'People from Malappuram'
p1137
I2268
sS'Women from Jammu and Kashmir'
p1138
I3050
sS'Indian medical administrators'
p1139
I949
sS'Druze people of American nationality'
p1140
I3475
sS'Monuments and memorials to Shivaji'
p1141
I1545
sS'English people of Welsh descent'
p1142
I3995
sS'Indian women academics'
p1143
I1283
sS'Recipients of Indian civil awards and decorations'
p1144
I2837
sS'People from Medak district'
p1145
I2294
sS'Maharashtra academics'
p1146
I1482
sS'American women'
p1147
I3131
sS'People from Dhubri district'
p1148
I1923
sS'United States presidential electors, 1908'
p1149
I3533
sS'People from Siddharthnagar district'
p1150
I2562
sS'Activists from Karnataka'
p1151
I152
sS'Indian emigrants to Hong Kong'
p1152
I714
sS'United States presidential electors, 1900'
p1153
I3528
sS'Indian mathematicians by century'
p1154
I945
sS'Indian Nobel laureates'
p1155
I1010
sS'People from Thoothukudi district'
p1156
I2652
sS'Indian art critics'
p1157
I549
sS'English people of Dutch descent'
p1158
I3974
sS'Brabazon family'
p1159
I3676
sS'B. R. Ambedkar'
p1160
I311
sS'People from Mahasamund district'
p1161
I2259
sS'Janata Dal politicians'
p1162
I1357
sS'Women of the Maurya Empire'
p1163
I3079
sS'Norwegian people of Indian descent'
p1164
I1583
sS'Indian expatriate sportspeople'
p1165
I800
sS'Palak Muchhal'
p1166
I1602
sS'People from North Garo Hills district'
p1167
I2382
sS'People from Shahdol'
p1168
I2541
sS'Women from Delhi'
p1169
I3045
sS'Hulton family'
p1170
I3675
sS'Bhoja'
p1171
I294
sS'Pakistani revolutionaries'
p1172
I1598
sS'People by city in Himachal Pradesh'
p1173
I1633
sS'Women from Uttarakhand'
p1174
I3068
sS'Indian people of World War I'
p1175
I1105
sS'Dr. B. C. Roy Award winners'
p1176
I406
sS'People from Datia district'
p1177
I1894
sS'Indian politicians convicted of crimes'
p1178
I1145
sS'Filipino people of Indian descent'
p1179
I446
sS'People from Sheohar district'
p1180
I2550
sS'American aviators'
p1181
I3284
sS'People from Latehar district'
p1182
I2230
sS'People from Bilaspur, Chhattisgarh'
p1183
I1817
sS'Mayors of Cuttack'
p1184
I1508
sS"D'Oyly family"
p1185
I3651
sS'People from Nagapattinam district'
p1186
I2341
sS'American printers'
p1187
I3266
sS'Samta Party politicians'
p1188
I2886
sS'People from Purnia district'
p1189
I2455
sS'People from Bargarh district'
p1190
I1763
sS'Gujarati people'
p1191
I479
sS'Reliance Industries people'
p1192
I2861
sS'United States presidential electors, 1848'
p1193
I3523
sS'Women from Rajasthan'
p1194
I3063
sS'Opposition leaders in India'
p1195
I1592
sS'Films about women in the Indian diaspora'
p1196
I449
sS'People from Dhamtari district'
p1197
I1911
sS'Indian journalists by language'
p1198
I896
sS'Lists of Sahitya Akademi Award winners'
p1199
I1449
sS'Russian people of Indian descent'
p1200
I2879
sS'Businesspeople by city in India'
p1201
I329
sS'12th-century Indian women'
p1202
I5
sS'Indian Education Service officers'
p1203
I698
sS'Dalit people'
p1204
I386
sS'Jermyn family'
p1205
I3698
sS'Indian space scientists'
p1206
I1225
sS'21st-century Indian people by occupation'
p1207
I110
sS'English socialites'
p1208
I3798
sS'Women from Karnataka'
p1209
I3052
sS'Indian people of Dutch descent'
p1210
I1066
sS'English people of Mexican descent'
p1211
I4024
sS'English people of Sicilian descent'
p1212
I4034
sS'English bloggers'
p1213
I3794
sS'Indian singer stubs'
p1214
I1215
sS'People from Udham Singh Nagar district'
p1215
I2683
sS'People by district in England'
p1216
I4152
sS'Indian businesspeople by industry'
p1217
I587
sS'Finnish people of Indian descent'
p1218
I453
sS'Indian children'
p1219
I602
sS'Cavendish family'
p1220
I3667
sS'Australian people of Indian descent'
p1221
I268
sS'People from Fatehabad district'
p1222
I1963
sS'Sangama dynasty'
p1223
I2888
sS'People from Kolkata district'
p1224
I2191
sS'British India judges'
p1225
I314
sS'Indian jewelry designers'
p1226
I892
sS'Indian amateur radio operators'
p1227
I536
sS'People from Datia'
p1228
I1893
sS'Marxist Forward Bloc politicians'
p1229
I1503
sS'People from Dhanbad district'
p1230
I1913
sS'Indian diaspora in Mauritius'
p1231
I673
sS'People from Kangra, Himachal Pradesh'
p1232
I2128
sS'Indian socialists'
p1233
I1218
sS'American historians'
p1234
I3260
sS'English people of Omani descent'
p1235
I4040
sS'Fijian people of Indian descent'
p1236
I443
sS'American psychiatrists'
p1237
I3271
sS'American people of the Spanish Civil War'
p1238
I3568
sS'People from Rayalaseema'
p1239
I2492
sS'Indian arts administrators'
p1240
I558
sS'Indian expatriates in Norway'
p1241
I785
sS'People from Farrukhabad'
p1242
I1961
sS'English people of Rotuman descent'
p1243
I4069
sS'Indian expatriates in Brazil'
p1244
I764
sS'Indian make-up artists'
p1245
I918
sS'People from Porbandar district'
p1246
I2434
sS'Seychellois people of Indian descent'
p1247
I2913
sS'Solanki dynasty'
p1248
I2935
sS'Indian business biography stubs'
p1249
I583
sS'Nagaland academics'
p1250
I1563
sS'American people stubs by state'
p1251
I3197
sS'Indian firefighters'
p1252
I827
sS'English malacologists'
p1253
I3906
sS'People from Thoubal district'
p1254
I2653
sS'Indian people in health professions'
p1255
I1045
sS'People from Alwar'
p1256
I1683
sS'Sheriffs of Mumbai'
p1257
I2920
sS'Indian expatriates in Saudi Arabia'
p1258
I789
sS'English ceramists'
p1259
I3847
sS'Pallava kings'
p1260
I1604
sS'19th-century Indian philosophers'
p1261
I62
sS'Indian Esperantists'
p1262
I752
sS'Rajya Sabha members from Mizoram'
p1263
I2825
sS'People from Kanker district'
p1264
I2129
sS'Indian royalty stubs'
p1265
I1184
sS'Dravida Munnetra Kazhagam politicians'
p1266
I404
sS'Himachal Pradesh academics'
p1267
I487
sS'Indian Zoroastrians'
p1268
I1339
sS'People from Indore'
p1269
I2062
sS'English occultists'
p1270
I3768
sS'People from Ernakulam district'
p1271
I1951
sS'18th-century Indian musicians'
p1272
I38
sS'Indian military physicians'
p1273
I972
sS'People from Doda district'
p1274
I1934
sS'American people of World War I'
p1275
I3577
sS'Tipu Sultan'
p1276
I2996
sS'People from Nalbari'
p1277
I2348
sS"Bihar People's Party politicians"
p1278
I297
sS'English Nobel laureates'
p1279
I3968
sS'Recipients of the Kala Ratna'
p1280
I2847
sS'People from Harda'
p1281
I2029
sS'People from Dungarpur'
p1282
I1936
sS'Gujarat academics'
p1283
I477
sS'People from Lower Subansiri district'
p1284
I2241
sS'Biographical museums in Oxfordshire'
p1285
I3935
sS'People from Margao'
p1286
I2287
sS'Indian diaspora in Asia'
p1287
I658
sS'American landscape and garden designers'
p1288
I3355
sS'People from Bandipora district'
p1289
I1744
sS'Dynasties of Odisha'
p1290
I411
sS'American people of the War of 1812'
p1291
I3571
sS'People from Narayanpur district'
p1292
I2358
sS'Biographical museums in Essex'
p1293
I3947
sS'American ranchers'
p1294
I3302
sS'People from Rohtak district'
p1295
I2501
sS'People from Mumbai'
p1296
I2321
sS'Guatama Buddha family'
p1297
I476
sS'People from Chhatarpur district'
p1298
I1855
sS'English executioners'
p1299
I3846
sS'Dynasties of India'
p1300
I410
sS'American women journalists of Indian descent'
p1301
I222
sS'Kerala school'
p1302
I1400
sS'Indian theologians'
p1303
I1268
sS'Praja Party politicians'
p1304
I2792
sS'People from Chandauli district'
p1305
I1843
sS'State political office-holders in India'
p1306
I2962
sS'Priyanka Chopra'
p1307
I2803
sS'Wikipedia categories named after American writers'
p1308
I3227
sS'People from Seoni, Madhya Pradesh'
p1309
I2537
sS'R\xc3\xa9unionnais people of Indian descent'
p1310
I2865
sS'People from Uttarakhand'
p1311
I2696
sS'Delhi academics'
p1312
I393
sS'English people of Filipino descent'
p1313
I4015
sS'Indian bioengineers'
p1314
I574
sS'American foresters'
p1315
I3353
sS'People from Thane district'
p1316
I2641
sS'Janata Dal (Secular) politicians'
p1317
I1358
sS'All India Muslim League members'
p1318
I202
sS'People from Nandyal'
p1319
I2357
sS'Indian Space Research Organisation people'
p1320
I1224
sS'Works by Swami Vivekananda'
p1321
I3095
sS'Ghanaian people of Indian descent'
p1322
I466
sS'People from Alwar district'
p1323
I1684
sS'American people of M\xc4\x81ori descent'
p1324
I3498
sS'People from Coimbatore district'
p1325
I1871
sS'Indian military personnel stubs'
p1326
I971
sS'Kidnapped Indian people'
p1327
I1404
sS'People from Uttarpara'
p1328
I2702
sS'Activists from Meghalaya'
p1329
I157
sS'Mizo National Front politicians'
p1330
I1540
sS'English aviators'
p1331
I3793
sS'Indian female prostitutes'
p1332
I808
sS'English people of Armenian descent'
p1333
I4054
sS'Indian people of Emirati descent'
p1334
I1067
sS'Indian Jain musicians'
p1335
I884
sS'Kerala diaspora'
p1336
I1398
sS'Iraqi people of Indian descent'
p1337
I1347
sS'Activists from Assam'
p1338
I141
sS'Judges of the Supreme Court of India'
p1339
I1376
sS'Indian television producers'
p1340
I1262
sS'People from Udaipur'
p1341
I2679
sS'Indian classical liberals'
p1342
I621
sS'Parsi writers'
p1343
I1618
sS'People from Haveri district'
p1344
I2039
sS'Politicians from Mysore'
p1345
I2786
sS'Indian military personnel by period'
p1346
I964
sS'Activists from Jharkhand'
p1347
I151
sS'People from Bellary district'
p1348
I1781
sS'American music biography stubs'
p1349
I3216
sS'Mughal dynasty'
p1350
I1547
sS'People from Jabalpur district'
p1351
I2066
sS'Cultural depictions of American people'
p1352
I3134
sS'People from Jhabua district'
p1353
I2098
sS'Indian expatriates in Fiji'
p1354
I767
sS'Foley family'
p1355
I3669
sS'Indian monks'
p1356
I978
sS'St Leger family'
p1357
I3685
sS'Mond family'
p1358
I3714
sS'Indian women by occupation and century'
p1359
I1289
sS'Indian military personnel by war'
p1360
I967
sS'People from Faridabad'
p1361
I1957
sS'Biographical museums in Bristol'
p1362
I3948
sS'Rees-Mogg family'
p1363
I3748
sS'American philosophers'
p1364
I3330
sS'Acland family'
p1365
I3703
sS'People murdered in India'
p1366
I2752
sS'Communist Party of India (Marxist) politician stubs'
p1367
I370
sS'People from Bihar'
p1368
I1806
sS'Songs written by Priyanka Chopra'
p1369
I2937
sS'Maharajas of Jaipur'
p1370
I1471
sS'People from Panchmahal district'
p1371
I2406
sS'Nepalese people of Indian descent'
p1372
I1577
sS'People from Rourkela'
p1373
I2503
sS'People of insular areas of the United States'
p1374
I3247
sS'People from Rajouri district'
p1375
I2475
sS'16th-century Indian writers'
p1376
I23
sS'Wilberforce family'
p1377
I3711
sS'People from Buxar district'
p1378
I1834
sS'Biographical museums in Merseyside'
p1379
I3936
sS'Sri Chinmoy'
p1380
I2959
sS'People from Sonipat'
p1381
I2590
sS'Recipients of the Padma Vibhushan in arts'
p1382
I2853
sS'English people of Bahamian descent'
p1383
I4091
sS'Cultural depictions of Charles Lindbergh'
p1384
I3584
sS'People from Bundi district'
p1385
I1832
sS'Indian expatriates in New Zealand'
p1386
I783
sS'Immigrants to England'
p1387
I4089
sS'Kashmiri diaspora'
p1388
I1393
sS'English spiritual mediums'
p1389
I3883
sS'People from Pratapgarh district, Uttar Pradesh'
p1390
I2439
sS'Indian people who died in prison custody'
p1391
I1112
sS'People from Verna, Goa'
p1392
I2714
sS'English saxophonists'
p1393
I3829
sS'People from Sitapur district'
p1394
I2581
sS'People of Anglo-Indian descent'
p1395
I2753
sS'20th-century Indian painters'
p1396
I85
sS'Swami Vivekananda'
p1397
I2972
sS'Indian diaspora in Pakistan'
p1398
I679
sS'Indian women trade unionists'
p1399
I1327
sS'Indian male choreographers'
p1400
I922
sS'People from Hyderabad, India'
p1401
I2055
sS'English businesspeople'
p1402
I3825
sS'Activists from Tamil Nadu'
p1403
I164
sS'Cultural depictions of Martin Luther King Jr.'
p1404
I3583
sS'Sai Baba of Shirdi'
p1405
I2881
sS'Dorrell family'
p1406
I3751
sS'Judges of the Mumbai High Court'
p1407
I1375
sS'American entertainer stubs'
p1408
I3209
sS'Saint Thomas Christians'
p1409
I2882
sS'Independent politicians in India'
p1410
I509
sS'Indian Marxists'
p1411
I941
sS'Characters created by Satyajit Ray'
p1412
I345
sS'Indian women by century'
p1413
I1287
sS'English art directors'
p1414
I3835
sS"Indian children's films"
p1415
I603
sS'English princesses'
p1416
I3625
sS'English people of Barbadian descent'
p1417
I3984
sS'Indian terrorism victims'
p1418
I1263
sS'American people in health professions'
p1419
I3417
sS'Indian political theorists'
p1420
I1137
sS'United States presidential electors, 1860'
p1421
I3511
sS'Adil Shahi dynasty'
p1422
I176
sS'LGBT sportspeople from England'
p1423
I3623
sS'19th-century Indian scientists'
p1424
I65
sS'Indian immunologists'
p1425
I858
sS'English people of Manchu descent'
p1426
I4047
sS'Women from Kerala'
p1427
I3053
sS'United States presidential electors, 1868'
p1428
I3508
sS'LGBT entertainers from England'
p1429
I3624
sS'Supreme Court of India lawyers'
p1430
I2966
sS'Sportspeople from Mysore'
p1431
I2949
sS'American skeptics'
p1432
I3105
sS'Fictional Indian people in literature'
p1433
I440
sS'American Unitarian Universalists'
p1434
I3467
sS'18th-century Indian people'
p1435
I40
sS'Indian emigrants to the United Kingdom'
p1436
I736
sS'Indian women activists'
p1437
I1284
sS'English people of Saudi Arabian descent'
p1438
I4050
sS'American stunt performers'
p1439
I3348
sS'Greystoke family'
p1440
I3708
sS'English communists'
p1441
I4137
sS'21st-century Indian women'
p1442
I117
sS'Jawaharlal Nehru'
p1443
I1363
sS'English pharmacists'
p1444
I3903
sS'American metalsmiths'
p1445
I3409
sS'Indian business executives'
p1446
I584
sS'American activists'
p1447
I3590
sS'Pandyan kings'
p1448
I1606
sS'Political positions of Indian politicians'
p1449
I2782
sS'Indian emigrants to the Soviet Union'
p1450
I734
sS'Indian Jews'
p1451
I893
sS'People from Deoria district'
p1452
I1905
sS'National Film Awards (India)'
p1453
I1568
sS'People from Wayanad district'
p1454
I2729
sS'Revolutionaries from Varanasi'
p1455
I2866
sS'Tamil Nadu politician stubs'
p1456
I2979
sS'United States presidential electors, 1912'
p1457
I3544
sS'People from Gumla district'
p1458
I2012
sS'Indian male artists'
p1459
I920
sS'United States presidential electors, 1916'
p1460
I3538
sS'English Freemasons'
p1461
I3613
sS'People from South Delhi district'
p1462
I2596
sS'English people of Ecuadorian descent'
p1463
I4014
sS'19th-century Indian actors'
p1464
I47
sS'Indian politicians by party'
p1465
I1142
sS'Indian competitors by sports event'
p1466
I630
sS'Indian former Hindus'
p1467
I836
sS'Biographical museums in Gloucestershire'
p1468
I3965
sS'Indian musicians by state'
p1469
I990
sS'People from Shamli district'
p1470
I2548
sS'English martyrs'
p1471
I3620
sS'People from Bijapur district, Chhattisgarh'
p1472
I1810
sS'English people of West Indian descent'
p1473
I3985
sS'Indian psychologists'
p1474
I1160
sS'Activists from Kerala'
p1475
I153
sS'People of pre-statehood U.S. states'
p1476
I3448
sS'Indian Police Service officers'
p1477
I1130
sS'American people stubs'
p1478
I3111
sS'Indian food scientists'
p1479
I830
sS'Lists of ambassadors of India'
p1480
I1426
sS'Naturalists of British India'
p1481
I1573
sS'English musicians by county'
p1482
I4144
sS'Indian Quranist Muslims'
p1483
I1164
sS'People from Gorakhpur district'
p1484
I2006
sS'20th-century Indian journalists'
p1485
I78
sS'Sankethi people'
p1486
I2890
sS'Children of Prime Ministers of India'
p1487
I357
sS'American prison officials'
p1488
I3331
sS'Portuguese people of Indian descent'
p1489
I2790
sS'Karnataka Janata Paksha politicians'
p1490
I1390
sS'Indian women philanthropists'
p1491
I1311
sS'Indian archivists'
p1492
I546
sS'Mauryan dynasty'
p1493
I1506
sS'Qatari people of Indian descent'
p1494
I2811
sS'People from Shajapur'
p1495
I2546
sS'English medical doctors'
p1496
I3855
sS'Leaders of political parties in India'
p1497
I1418
sS'Indian Shia clerics'
p1498
I1209
sS'People from West Garo Hills district'
p1499
I2736
sS'Indian medical doctors'
p1500
I951
sS'People from Cooch Behar district'
p1501
I1872
sS'19th-century Indian educators'
p1502
I52
sS'People from Debagarh district'
p1503
I1898
sS'Timurid dynasty'
p1504
I2995
sS'People of Indian Tamil descent'
p1505
I2761
sS'English financial analysts'
p1506
I3918
sS'People from Chhattisgarh by occupation'
p1507
I1858
sS'Contemporary Indian philosophers'
p1508
I375
sS'Indian women'
p1509
I1282
sS'Indian surrealist writers'
p1510
I1252
sS'People from Balasore district'
p1511
I1736
sS'Indian women journalists'
p1512
I1305
sS'English cannibals'
p1513
I3614
sS'16th-century Indian painters'
p1514
I16
sS'Local government officers in England'
p1515
I3862
sS'Wikipedia categories named after American families'
p1516
I3233
sS'2nd-century Indian people'
p1517
I120
sS'Wikipedia categories named after American sportspeople'
p1518
I3232
sS'Indian international schools in Japan'
p1519
I869
sS'English royalty'
p1520
I3594
sS'Indian diaspora in the Netherlands'
p1521
I686
sS'American people by period by state'
p1522
I3447
sS'English supercentenarians'
p1523
I3627
sS'Hornby family'
p1524
I3724
sS'Indian theoretical physicists'
p1525
I1269
sS'20th-century American women'
p1526
I3552
sS'Bahujan Samaj Party politicians'
p1527
I273
sS'People from Gwalior'
p1528
I2021
sS'People from Ramagundam'
p1529
I2478
sS'Fictional people from Newcastle upon Tyne'
p1530
I4160
sS'Sheriffs of India'
p1531
I2918
sS'People from Saiha district'
p1532
I2513
sS'People from Ambala district'
p1533
I1685
sS'Indian scholars'
p1534
I1191
sS'Acton family'
p1535
I3690
sS'American theatre people'
p1536
I3416
sS'Nordstrom family'
p1537
I3164
sS'Sassoon family'
p1538
I2892
sS'English Jews'
p1539
I4098
sS'People from Suryapet'
p1540
I2623
sS'People from Mandla district'
p1541
I2276
sS'Indian Oriental Orthodox Christians'
p1542
I1022
sS'Indian sportswriters'
p1543
I1241
sS'People from Sivasagar district'
p1544
I2584
sS'Indian people convicted of murder'
p1545
I1040
sS'Indian National Congress (Organisation) politicians'
p1546
I1000
sS'English people of Guyanese descent'
p1547
I3988
sS'American military personnel'
p1548
I3296
sS'Hemendra Kumar Roy'
p1549
I486
sS'Wikipedia categories named after Indian politicians'
p1550
I3036
sS'Compositions by Ilaiyaraaja'
p1551
I374
sS'English Thelemites'
p1552
I3636
sS'American spies'
p1553
I3275
sS'People from South 24 Parganas district'
p1554
I2594
sS'Indian theatre people'
p1555
I1267
sS'People from Almora district'
p1556
I1682
sS'Indian people of Vietnamese descent'
p1557
I1104
sS'Indian people of North American descent'
p1558
I1083
sS'People from Vellore district'
p1559
I2713
sS'American sailors'
p1560
I3270
sS'People from Tamenglong district'
p1561
I2625
sS'Indian materials scientists'
p1562
I943
sS'People from Ozhukarai'
p1563
I2393
sS'Samyukta Socialist Party politicians'
p1564
I2887
sS'36 royal races'
p1565
I121
sS'People from Jalgaon'
p1566
I2076
sS'People from Haridwar'
p1567
I2032
sS'Ancient Indian philosophers'
p1568
I232
sS'People from Uttarakhand by occupation'
p1569
I2698
sS'American folk-song collectors'
p1570
I3435
sS'Indian Islamists'
p1571
I881
sS'English nationalists'
p1572
I4136
sS'Executed Indian people'
p1573
I422
sS'People from Etah district'
p1574
I1953
sS'United States presidential electors, 2008'
p1575
I3501
sS'University of Rajasthan faculty'
p1576
I3012
sS'People from Durgapur, West Bengal'
p1577
I1939
sS'United States presidential electors, 2000'
p1578
I3516
sS'Hyett family'
p1579
I3719
sS'18th-century Indian politicians'
p1580
I42
sS'Indian diaspora in South America'
p1581
I682
sS'United States presidential electors, 2004'
p1582
I3502
sS'21st-century Indian photographers'
p1583
I112
sS'English nurses'
p1584
I3804
sS'13th-century Indian people'
p1585
I6
sS'English sportspeople'
p1586
I3771
sS'English people of Albanian descent'
p1587
I4066
sS'English people of American descent'
p1588
I3976
sS'Indian Africanists'
p1589
I529
sS'English motivational speakers'
p1590
I3832
sS'Indian people of Polish descent'
p1591
I1086
sS'Fictional American people'
p1592
I3126
sS'People by state in the United States'
p1593
I3243
sS'People from Chitrakoot district'
p1594
I1865
sS'American bricklayers'
p1595
I3373
sS'People from Assam by occupation'
p1596
I1721
sS'Jewish Indian sportspeople'
p1597
I1368
sS'People from Leh district'
p1598
I2234
sS'Raikes family'
p1599
I3747
sS'American designers'
p1600
I3339
sS'English media people'
p1601
I3920
sS'Athletes from Varanasi'
p1602
I265
sS'People from Latur district'
p1603
I2232
sS'People from Nellore district'
p1604
I2371
sS'Indian activist journalists'
p1605
I514
sS'People from Banswara district'
p1606
I1752
sS'American real estate brokers'
p1607
I3368
sS'People from Sindhudurg district'
p1608
I2573
sS'Indian diaspora in Australia'
p1609
I659
sS'English scientists'
p1610
I3851
sS'Meher Baba'
p1611
I1526
sS'People from Garhwa district'
p1612
I1982
sS'People from Hardoi district'
p1613
I2031
sS'People from Ganjam district'
p1614
I1981
sS'People from Amravati district'
p1615
I1691
sS'Indian military personnel of World War I'
p1616
I969
sS'American men'
p1617
I3130
sS'Madurai Nayak dynasty'
p1618
I1462
sS'English people of Danish descent'
p1619
I4009
sS'British Indian history'
p1620
I316
sS'Indian Christian missionaries'
p1621
I608
sS'American people by ethnic or national origin'
p1622
I3121
sS'People from Narmada district'
p1623
I2359
sS'People from Bardhaman district'
p1624
I1760
sS'People from Samba district'
p1625
I2517
sS'Indian actresses'
p1626
I524
sS'English Rastafarians'
p1627
I3641
sS'People from Port Blair'
p1628
I2435
sS'Journalists of Indian descent'
p1629
I1373
sS'People from Tirunelveli district'
p1630
I2663
sS'Works by Jhumpa Lahiri'
p1631
I3090
sS'Indian lawyers'
p1632
I904
sS'People from Kochi'
p1633
I2179
sS'People from Burhanpur district'
p1634
I1833
sS'People from Pondicherry'
p1635
I2432
sS'People from Dadra and Nagar Haveli district'
p1636
I1878
sS'People from Jaipur district'
p1637
I2069
sS'Stepney family'
p1638
I3665
sS'Indian newspaper people'
p1639
I1009
sS'American conservationists'
p1640
I3336
sS'People from Dharwad district'
p1641
I1919
sS'Ambassadors of England to the Mughal Empire'
p1642
I208
sS'People from South Tripura'
p1643
I2600
sS'People from Bagalkot district'
p1644
I1728
sS'American domestic workers'
p1645
I3418
sS'People from Fatehgarh Sahib district'
p1646
I1966
sS'Ancient Indian monarchs'
p1647
I229
sS'People from Chandigarh by occupation'
p1648
I1846
sS'People from Kinnaur district'
p1649
I2175
sS'Lloyd Webber family'
p1650
I3733
sS'People from Longding district'
p1651
I2237
sS'Indian models'
p1652
I976
sS'Tamil Maanila Congress politicians'
p1653
I2977
sS'United States presidential electors, 1832'
p1654
I3503
sS'People from Dhar'
p1655
I1914
sS'English eugenicists'
p1656
I3834
sS'People from Uttar Pradesh by district'
p1657
I2704
sS'Brahmin dynasties'
p1658
I307
sS'People from Navi Mumbai'
p1659
I2364
sS'People from Bareilly district'
p1660
I1762
sS'Ancient Indian people by occupation'
p1661
I231
sS'20th-century Indian businesspeople'
p1662
I74
sS'People from Bihar by occupation'
p1663
I1808
sS'People from Bhagalpur district'
p1664
I1787
sS'5th-century Indian people'
p1665
I127
sS'Indian legal scholars'
p1666
I906
sS'Child family (English bankers)'
p1667
I3738
sS'People from Rajnandgaon district'
p1668
I2474
sS'American actresses of Indian descent'
p1669
I210
sS'United States government biography stubs'
p1670
I3210
sS'Indian Rhodes Scholars'
p1671
I1180
sS'People from Faizabad district'
p1672
I1956
sS'People from Bidar district'
p1673
I1805
sS'Indian dance groups'
p1674
I641
sS'English people of Dougla descent'
p1675
I4080
sS'People from Satna'
p1676
I2529
sS'American child musicians'
p1677
I3139
sS'East India Company civil servants'
p1678
I415
sS'English people of Czech descent'
p1679
I3972
sS'Greek people of Indian descent'
p1680
I474
sS'American prisoners and detainees'
p1681
I3564
sS'Indian Institute of Technology Delhi people'
p1682
I864
sS'Meghalaya politician stubs'
p1683
I1525
sS'Defence Secretaries of India'
p1684
I392
sS'Indian librarians'
p1685
I909
sS"American Bah\xc3\xa1'\xc3\xads"
p1686
I3459
sS'People from Subarnapur district'
p1687
I2612
sS'American women artists of Indian descent'
p1688
I221
sS'People from Lahaul and Spiti district'
p1689
I2221
sS'15th-century Indian philosophers'
p1690
I13
sS'People from Sikkim'
p1691
I2567
sS'People from West Champaran district'
p1692
I2733
sS'Gujarat Parivartan Party politicians'
p1693
I480
sS'Indian nationalists'
p1694
I1004
sS'Middle Eastern people of Indian descent'
p1695
I1537
sS'People by city in Andhra Pradesh'
p1696
I1625
sS'Women from Meghalaya'
p1697
I3057
sS'People from Allahabad district'
p1698
I1681
sS'English palaeontologists'
p1699
I3781
sS'People from Harda district'
p1700
I2030
sS'LGBT writers from England'
p1701
I3622
sS'People from Ghaziabad'
p1702
I1987
sS'People from Tapi district'
p1703
I2629
sS'Solomon Islands people of Indian descent'
p1704
I2936
sS'Indian television actor stubs'
p1705
I1257
sS'Artists from Thiruvananthapuram'
p1706
I254
sS'Biographical museums in Nottinghamshire'
p1707
I3956
sS'Members of the Council of India'
p1708
I1531
sS'English political theorists'
p1709
I3894
sS'English engineers'
p1710
I3917
sS'People from Haryana by district'
p1711
I2035
sS'Indian child actors'
p1712
I599
sS'People of Indo-Fijian descent'
p1713
I2762
sS'Indian defectors'
p1714
I645
sS'English people of French descent'
p1715
I3975
sS'Indian artist stubs'
p1716
I557
sS'Indian jewellers'
p1717
I891
sS'Panthic Party politicians'
p1718
I1608
sS'Mayors of Surat'
p1719
I1517
sS"Indian women's rights activists"
p1720
I1321
sS'People from Madurai district'
p1721
I2254
sS'American deaf actors'
p1722
I3183
sS'Expatriates in India'
p1723
I425
sS'Akhil Bharatiya Gorkha League politicians'
p1724
I196
sS'People from Andhra Pradesh'
p1725
I1701
sS'People from Bhadrak district'
p1726
I1785
sS'English educational theorists'
p1727
I3931
sS'Indian legendary characters'
p1728
I907
sS'English people of Mauritian descent'
p1729
I4062
sS'People from Kondagaon district'
p1730
I2194
sS'Sudanese people of Indian descent'
p1731
I2964
sS'People from Katni'
p1732
I2156
sS'English silversmiths'
p1733
I3864
sS'Indian folk-song collectors'
p1734
I829
sS'English people of Algerian descent'
p1735
I4025
sS'United States presidential electors, 1852'
p1736
I3507
sS'Indian emigrants to Pakistan'
p1737
I725
sS'Indian torture victims'
p1738
I1272
sS'English Marxists'
p1739
I4129
sS'American Esperantists'
p1740
I3109
sS'People from Rajasthan by district'
p1741
I2468
sS'Biographical museums in Berkshire'
p1742
I3962
sS'People from Guwahati'
p1743
I2020
sS'United States presidential electors, 1928'
p1744
I3540
sS'Lok Sewak Sangh politicians'
p1745
I1458
sS'People from East Siang district'
p1746
I1948
sS'English prisoners and detainees'
p1747
I3600
sS'English sailors'
p1748
I3897
sS'Indian people of Danish descent'
p1749
I1065
sS'Chairpersons of the National Endowment for the Humanities'
p1750
I3390
sS'English statisticians'
p1751
I3812
sS'18th-century Indian people by occupation'
p1752
I41
sS'Godson family'
p1753
I3739
sS'Indian emigrants to Zimbabwe'
p1754
I740
sS'People from Kurnool'
p1755
I2214
sS'People from Darbhanga'
p1756
I1888
sS'People from Jajpur district'
p1757
I2072
sS'People from Koraput district'
p1758
I2196
sS'Indian Christian theologians'
p1759
I615
sS'19th-century Indian journalists'
p1760
I54
sS'People from Ukhrul district'
p1761
I2687
sS'Wikipedia categories named after American politicians'
p1762
I3229
sS'People from Varanasi district'
p1763
I2711
sS'Indian activists'
p1764
I515
sS'Indian atheists'
p1765
I563
sS'Punjab, India academics'
p1766
I2809
sS'People from Alappuzha district'
p1767
I1674
sS'Indian politician stubs'
p1768
I1147
sS'People from Jalna'
p1769
I2078
sS'People associated with the Boy Scouts of America'
p1770
I3137
sS'Indian expatriates in Germany'
p1771
I770
sS'People from Mainpuri district'
p1772
I2266
sS'University of Pune faculty'
p1773
I3011
sS'Peshwa dynasty'
p1774
I2777
sS'Rulers of Cochin'
p1775
I2877
sS'Fiji Hindi'
p1776
I444
sS'Indian historians by century'
p1777
I851
sS'People from Hazaribagh district'
p1778
I2040
sS'People from Tenali'
p1779
I2638
sS'People by city in Karnataka'
p1780
I1637
sS'Indian exiles'
p1781
I754
sS'1st-century Indian people'
p1782
I70
sS'Indian people of Saudi Arabian descent'
p1783
I1089
sS'Brahmin history'
p1784
I308
sS'People from Raipur, Chhattisgarh'
p1785
I2462
sS'People from Dumka district'
p1786
I1935
sS'Founders of Indian schools and colleges'
p1787
I457
sS'American carpenters'
p1788
I3377
sS'People from Meghalaya by occupation'
p1789
I2299
sS'Indian emigrants to South Africa'
p1790
I729
sS'Indian politicians'
p1791
I1138
sS'People from Shimla district'
p1792
I2554
sS'People from Namakkal district'
p1793
I2352
sS'People from Chamba district'
p1794
I1838
sS'Indian engineers'
p1795
I744
sS'English people of Igbo descent'
p1796
I4003
sS'Indian Political Service officers'
p1797
I1136
sS'Indian military personnel by branch'
p1798
I963
sS'Sri Aurobindo'
p1799
I2958
sS'Indian scientists by century'
p1800
I1199
sS'American librarians'
p1801
I3279
sS'People from Guna, India'
p1802
I2014
sS'People from Bhilwara'
p1803
I1795
sS'Lists of Indian female political office-holders'
p1804
I1428
sS'United States presidential electors, 1836'
p1805
I3504
sS'Media of Indian diaspora'
p1806
I1520
sS'10th-century Indian women'
p1807
I1
sS'English legal professionals'
p1808
I3791
sS'People from Assam by district'
p1809
I1720
sS'People from Alirajpur district'
p1810
I1679
sS'Recipients of the Infosys Prize'
p1811
I2844
sS'Maharajas of Gujarat'
p1812
I1468
sS'Films about women in India'
p1813
I448
sS'Wikipedia categories named after American criminals'
p1814
I3231
sS'People from Angul district'
p1815
I1704
sS'English monarchs'
p1816
I3887
sS'Sanskrit Scholars from India'
p1817
I2891
sS'People from Bareilly'
p1818
I1761
sS'Indian Medical Service officers'
p1819
I953
sS'People from Seraikela Kharsawan district'
p1820
I2538
sS'English critics'
p1821
I3905
sS'11th-century Indian people'
p1822
I2
sS'Executed Indian women'
p1823
I423
sS'Indian Christian pacifists'
p1824
I610
sS'Indian diaspora by country'
p1825
I652
sS'People from Kulti'
p1826
I2212
sS'Films directed by Kamal Haasan'
p1827
I450
sS'People by city in Gujarat'
p1828
I1631
sS'American people by location'
p1829
I3117
sS'Praja Rajyam Party politicians'
p1830
I2793
sS'English people of Grenadian descent'
p1831
I3987
sS'Maharajas of Porbandar'
p1832
I1476
sS'People from Dholpur district'
p1833
I1922
sS'English people of Ulster-Scottish descent'
p1834
I4000
sS'People from Jharkhand by occupation'
p1835
I2105
sS'Indian Foreign Service officers'
p1836
I834
sS'People associated with the British East India Company'
p1837
I1624
sS'Indian agriculturalists'
p1838
I532
sS'People from Beed district'
p1839
I1775
sS'People from Jhansi'
p1840
I2101
sS'People from Arunachal Pradesh'
p1841
I1712
sS'Ahmed Raza Khan Barelvi'
p1842
I192
sS'Indian philanthropists'
p1843
I1115
sS'Business families of India'
p1844
I328
sS'Works by Meher Baba'
p1845
I3091
sS'Fictional Indian people in video games'
p1846
I441
sS'English calligraphers'
p1847
I3824
sS'People from Bastar district'
p1848
I1771
sS'Women from Madhya Pradesh'
p1849
I3054
sS'People from Maharajganj district'
p1850
I2255
sS'Paralympic competitors for the United States'
p1851
I3179
sS'Guyanese people of Indian descent'
p1852
I482
sS'People from Dantewada district'
p1853
I1887
sS'People from Chandrapur'
p1854
I1847
sS'American businesspeople'
p1855
I3288
sS'American intelligence analysts'
p1856
I3316
sS'Indian biographers'
p1857
I575
sS'English people of Ukrainian descent'
p1858
I4030
sS'Sikkim Democratic Front politicians'
p1859
I2930
sS'Pakistani people of Haryanvi descent'
p1860
I1595
sS'People from Madhubani, India'
p1861
I2249
sS'21st-century Indian scientists'
p1862
I114
sS'People from Bhavnagar district'
p1863
I1793
sS'Indian expatriates in the Netherlands'
p1864
I794
sS'People from Ratnagiri district'
p1865
I2490
sS'Maxse family'
p1866
I3662
sS'English people of Malaysian descent'
p1867
I4090
sS'American people by role'
p1868
I3135
sS'English people of Polynesian descent'
p1869
I4086
sS'People from Ongole'
p1870
I2391
sS'People from Udhampur district'
p1871
I2682
sS'Indian business theorists'
p1872
I589
sS'7th-century Indian people'
p1873
I131
sS'Maharashtra politician stubs'
p1874
I1484
sS'People from Gautam Buddh Nagar district'
p1875
I1984
sS'Fictional Romani people'
p1876
I442
sS'People from Birbhum district'
p1877
I1820
sS'People from Bankura district'
p1878
I1751
sS'Anglican Bishops of Bombay'
p1879
I241
sS'People from Latur'
p1880
I2231
sS'American people of Middle Eastern descent'
p1881
I3490
sS'Karnataka academics'
p1882
I1389
sS'University of Mumbai faculty'
p1883
I3010
sS'People from Howrah district'
p1884
I2052
sS'United States presidential electors, 2012'
p1885
I3500
sS'Sportspeople from Jaipur'
p1886
I2947
sS'English people of Yoruba descent'
p1887
I4055
sS'United States presidential electors, 2016'
p1888
I3545
sS'Dance India Dance contestants'
p1889
I390
sS'Indian Muslim activists'
p1890
I994
sS'Indian dentists'
p1891
I646
sS'Indian biologists'
p1892
I576
sS'14th-century Indian people'
p1893
I8
sS'17th-century Indian women'
p1894
I32
sS'Indian male actors'
p1895
I919
sS'English anarchists'
p1896
I4126
sS'American computer programmers'
p1897
I3283
sS'English shipbuilders'
p1898
I3843
sS'Local political office-holders in India'
p1899
I1452
sS'American labor leaders'
p1900
I3298
sS'People from Kakinada'
p1901
I2119
sS'Irani people'
p1902
I1346
sS'People from Lakhisarai district'
p1903
I2224
sS'Revolutionary movement for Indian independence'
p1904
I2869
sS'American planters'
p1905
I3329
sS'People from Himachal Pradesh by occupation'
p1906
I2043
sS'American financial commentators'
p1907
I3394
sS'Holland family'
p1908
I3674
sS'Biographical museums in Dorset'
p1909
I3957
sS'People from Jammu district'
p1910
I2087
sS'21st-century Indian educators'
p1911
I100
sS'People from Ahmednagar district'
p1912
I1665
sS'Hyderabad State people'
p1913
I500
sS'People from Himachal Pradesh'
p1914
I2041
sS'People from Begusarai district'
p1915
I1777
sS'Indian educators'
p1916
I699
sS'Adivasi women'
p1917
I183
sS'American artists of Indian descent'
p1918
I211
sS'Indian diaspora in Trinidad and Tobago'
p1919
I690
sS'American people of the Gulf War'
p1920
I3567
sS'People from South Tripura district'
p1921
I2601
sS'Indian financial analysts'
p1922
I826
sS'People from Barnala district'
p1923
I1767
sS'People from Chatra district'
p1924
I1850
sS'Artists from Varanasi'
p1925
I255
sS'Indian metallurgists'
p1926
I958
sS'English rhetoricians'
p1927
I3814
sS'People from Kottayam district'
p1928
I2203
sS'People from Odisha'
p1929
I2388
sS'Indian diaspora templates'
p1930
I691
sS'People from Muzaffarpur'
p1931
I2330
sS'Pushyabhuti dynasty'
p1932
I2810
sS'People from Shahid Bhagat Singh Nagar district'
p1933
I2543
sS'People from Jalandhar district'
p1934
I2074
sS'Indian theatre critics'
p1935
I1264
sS'American Mesoamericanists'
p1936
I3312
sS'People from Dungarpur district'
p1937
I1937
sS'Zanzibari people of Indian descent'
p1938
I3101
sS'Biographical museums in Hampshire'
p1939
I3939
sS'English people of Asian descent'
p1940
I4088
sS'People from Pilibhit district'
p1941
I2429
sS'American music people'
p1942
I3314
sS'Assassinated Indian politicians'
p1943
I263
sS'People from Neemuch'
p1944
I2368
sS'Activists from Himachal Pradesh'
p1945
I149
sS'People from Gujarat by district'
p1946
I2008
sS'People from West Jaintia Hills district'
p1947
I2738
sS'Indian accountants'
p1948
I513
sS'People from Tirunelveli'
p1949
I2662
sS'Works by Chitra Banerjee Divakaruni'
p1950
I3088
sS'American law enforcement officials'
p1951
I3281
sS'Appalachian people'
p1952
I3123
sS'Pandyan dynasty'
p1953
I1605
sS'English monks'
p1954
I3807
sS'20th-century Indian women'
p1955
I93
sS'Maharashtra Navnirman Sena politicians'
p1956
I1483
sS'People from Vidisha district'
p1957
I2716
sS'English philosophers'
p1958
I3758
sS'Maharajas of Bikaner'
p1959
I1466
sS'English people of Swiss descent'
p1960
I4029
sS'People from Pratapgarh, Uttar Pradesh'
p1961
I2440
sS'Telugu diaspora'
p1962
I2988
sS'Indian film actors'
p1963
I813
sS'Barnardiston family'
p1964
I3697
sS'Kajol'
p1965
I1380
sS'English people of Pakistani descent'
p1966
I4083
sS'Ashoka'
p1967
I257
sS'Raj Kapoor'
p1968
I2822
sS'Telangana politicians'
p1969
I2984
sS'Indian scenic designers'
p1970
I1189
sS'Indian people of Australian descent'
p1971
I1055
sS'Memorials to Maharana Pratap'
p1972
I1533
sS'People from Chamarajanagar district'
p1973
I1837
sS'Vaikom Muhammad Basheer'
p1974
I3018
sS'Janathipathiya Samrakshana Samithy politicians'
p1975
I1361
sS'Bharatiya Lok Dal politicians'
p1976
I291
sS'People from Dewas district'
p1977
I1909
sS'Indian film directors'
p1978
I818
sS'English people of Gambian descent'
p1979
I4008
sS'People from Jagatsinghpur district'
p1980
I2067
sS'Republican Party of India politicians'
p1981
I2864
sS'People from Virudhunagar district'
p1982
I2720
sS'Andhra Pradesh politician stubs'
p1983
I239
sS'Indian journalists by state'
p1984
I897
sS'People from Guntur'
p1985
I2015
sS'People from West Bengal'
p1986
I2730
sS'People from Una district'
p1987
I2690
sS'Indian health activists'
p1988
I845
sS'Sportspeople from the Andaman and Nicobar Islands'
p1989
I2952
sS'Biographical museums in the East Riding of Yorkshire'
p1990
I3964
sS'People from Coimbatore'
p1991
I1870
sS'19th-century Indian musicians'
p1992
I58
sS'Maharajas of Indore'
p1993
I1470
sS'Indian businesspeople by state'
p1994
I588
sS'Indian expatriates in Singapore'
p1995
I790
sS'English billionaires'
p1996
I3604
sS'People from Bangalore by occupation'
p1997
I1747
sS'English apothecaries'
p1998
I3922
sS'Politicians from Mangalore'
p1999
I2785
sS'Women of the Sikh Empire'
p2000
I3081
sS'English archivists'
p2001
I3857
sS'Indian film biography stubs'
p2002
I816
sS'American sportspeople'
p2003
I3269
sS'Indian comedians'
p2004
I625
sS'People from Jhabua'
p2005
I2097
sS'People from Botad district'
p2006
I1825
sS'People from Thiruvananthapuram district'
p2007
I2650
sS'Hindi-language newspapers published in Fiji'
p2008
I490
sS'Indian military personnel by state'
p2009
I965
sS'Indian city founders'
p2010
I617
sS'People from Thiruvananthapuram'
p2011
I2648
sS'Indian international schools in Kuwait'
p2012
I870
sS'Novels by Kavita Daswani'
p2013
I1586
sS'People by city or town in England'
p2014
I4153
sS'Mangalore municipal councillors'
p2015
I1496
sS'People from Chitradurga district'
p2016
I1864
sS'American child writers'
p2017
I3141
sS'People from Gir Somnath district'
p2018
I1991
sS'Indian diaspora in the United Kingdom'
p2019
I688
sS'Griswold family'
p2020
I3176
sS'People from Gonda district'
p2021
I2000
sS'People from Puducherry by district'
p2022
I2442
sS'Indian number theorists'
p2023
I1014
sS'People from Dausa district'
p2024
I1895
sS'Indian feminists'
p2025
I810
sS'American firefighters'
p2026
I3259
sS'People from Thanjavur'
p2027
I2642
sS'Recipients of the Padma Shri in sports'
p2028
I2851
sS'American theologians'
p2029
I3267
sS'American people by ethnic or national origin and occupation'
p2030
I3406
sS'People from Khargone district'
p2031
I2170
sS'Indian women surgeons'
p2032
I1322
sS'People from Baramulla'
p2033
I1755
sS'Indian people imprisoned on charges of terrorism'
p2034
I1043
sS"Women's rights in India"
p2035
I3084
sS'Indian diaspora by ethnic group'
p2036
I653
sS'People from Lalitpur, India'
p2037
I2229
sS'Mughal Empire people'
p2038
I1548
sS'Indian people by war'
p2039
I1038
sS'People from Chennai'
p2040
I1851
sS'English entertainers'
p2041
I3929
sS'People from Tirupur district'
p2042
I2666
sS'English public relations people'
p2043
I3859
sS'Lists of people by city in the United States'
p2044
I3187
sS'People from Hathras district'
p2045
I2038
sS'People from Bijnor district'
p2046
I1814
sS'Jammu &amp; Kashmir National Conference politicians'
p2047
I1353
sS'People from Namsai district'
p2048
I2353
sS'Indian genealogists'
p2049
I840
sS'Indian writers by genre'
p2050
I1333
sS'People from Bharuch district'
p2051
I1790
sS'People from Tarn Taran district'
p2052
I2630
sS'Ambassadors of India'
p2053
I209
sS'Indian people of Spanish descent'
p2054
I1095
sS'American Universalists'
p2055
I3474
sS'People from Narsinghpur'
p2056
I2360
sS'Prabhat Ranjan Sarkar'
p2057
I2791
sS'People from Panna district'
p2058
I2411
sS'English photographers'
p2059
I3925
sS'Ranjit Singh'
p2060
I2829
sS'People from Gadag district'
p2061
I1972
sS'People from Sant Ravidas Nagar district'
p2062
I2526
sS'English politicians by locality'
p2063
I4146
sS'People from Kalyan-Dombivali'
p2064
I2121
sS'Activists from Uttar Pradesh'
p2065
I168
sS'Indian academic biography stubs'
p2066
I510
sS'People from Nanded'
p2067
I2354
sS'Bangla Congress politicians'
p2068
I277
sS'Indian athletics biography stubs'
p2069
I564
sS'Bihar cadre civil servants'
p2070
I296
sS'English hermits'
p2071
I3902
sS'People from Punjab, India'
p2072
I2449
sS'People from Shahjahanpur'
p2073
I2544
sS'People from Rajpur Sonarpur'
p2074
I2476
sS'Indian stage actors'
p2075
I1242
sS'Politicians from Udaipur'
p2076
I2787
sS'Indian people of Italian descent'
p2077
I1076
sS'People from Gurgaon district'
p2078
I2019
sS'Indian diplomats'
p2079
I692
sS'American monks'
p2080
I3337
sS'Fictional people from Liverpool'
p2081
I4159
sS'People from Ludhiana district'
p2082
I2245
sS'Indian prostitutes'
p2083
I1158
sS'People from Patna district'
p2084
I2424
sS'Anand Patwardhan'
p2085
I227
sS'William Booth family'
p2086
I3710
sS'Sportspeople of Indian descent'
p2087
I2956
sS'Lists of American women'
p2088
I3188
sS'English manslaughter victims'
p2089
I3754
sS'People from Karnataka by district'
p2090
I2148
sS'Indian stunt performers'
p2091
I1246
sS'American women of Indian descent in health professions'
p2092
I224
sS'Sportspeople by city or town in India'
p2093
I2944
sS'20th-century Indian monks'
p2094
I83
sS'Indian Buddhist monks'
p2095
I579
sS'Sports families of the United States'
p2096
I3159
sS'British Indian Army personnel killed in action'
p2097
I315
sS'Indian male models'
p2098
I930
sS'Fictional English people by medium'
p2099
I4163
sS'Indian Muslims'
p2100
I997
sS'People from Madhubani district'
p2101
I2248
sS'BSR Congress politicians'
p2102
I323
sS'Indian expatriates in Indonesia'
p2103
I772
sS'Actors from Bhopal'
p2104
I172
sS'Indian Sufi religious leaders'
p2105
I1247
sS'People of the Kingdom of Mysore'
p2106
I2770
sS'People of Indian-Jewish descent'
p2107
I2760
sS'Indian documentary filmmakers'
p2108
I694
sS'Smith and Carington family'
p2109
I3671
sS'People from Surendranagar district'
p2110
I2621
sS'Pala Empire'
p2111
I1601
sS'American centenarians'
p2112
I3557
sS'Thane municipal councillors'
p2113
I2992
sS'People from Patiala district'
p2114
I2422
sS'People from Sawai Madhopur district'
p2115
I2531
sS'Nationalist Congress Party politicians'
p2116
I1569
sS'People from Basti district'
p2117
I1772
sS'Adivasi politicians'
p2118
I182
sS'Fictional people from Manchester'
p2119
I4158
sS'People from Tirupati'
p2120
I2664
sS'Fictional American people of Indian descent'
p2121
I434
sS'American yacht designers'
p2122
I3412
sS'20th-century Indian sportspeople'
p2123
I92
sS'American social workers'
p2124
I3252
sS'Indian people in rail transport'
p2125
I1046
sS'Indian people convicted of manslaughter'
p2126
I1039
sS'People from Rohtak'
p2127
I2500
sS'American entertainers'
p2128
I3349
sS'American expatriates'
p2129
I3554
sS'Indian diaspora in Oman'
p2130
I678
sS'American dancers'
p2131
I3346
sS'17th-century Indian people'
p2132
I28
sS'People by city in Odisha'
p2133
I1644
sS'Lomax family'
p2134
I3168
sS'People from Mandla'
p2135
I2275
sS'Indian computer specialists'
p2136
I632
sS'People from Etawah'
p2137
I1954
sS'Indian Christian religious leaders'
p2138
I611
sS'English collectors'
p2139
I3926
sS'American slave traders'
p2140
I3323
sS'English people of Circassian descent'
p2141
I4097
sS'Murdered American children'
p2142
I3148
sS'Indian geographers'
p2143
I841
sS'19th-century Indian painters'
p2144
I59
sS'Adivasi people'
p2145
I181
sS'People from Pathanamthitta'
p2146
I2418
sS'Railway Ministers of India'
p2147
I2815
sS'People from Bhilai'
p2148
I1794
sS'English people of Dominica descent'
p2149
I3997
sS'Indian whistleblowers'
p2150
I1280
sS'American billionaires'
p2151
I3558
sS'Indian photographers'
p2152
I1119
sS'English writers by location of origin'
p2153
I4156
sS'People from the Andaman and Nicobar Islands by district'
p2154
I2645
sS'Medieval English people'
p2155
I4107
sS'Lists of people from Kerala'
p2156
I1442
sS'People from Kra Daadi district'
p2157
I2206
sS'English writers by locality'
p2158
I4147
sS'People from Bijapur district, Karnataka'
p2159
I1811
sS'Italian people of Indian descent'
p2160
I1350
sS'Sportspeople from Visakhapatnam'
p2161
I2955
sS'People from Shimoga'
p2162
I2555
sS'American infotainers'
p2163
I3380
sS'People from Panna, India'
p2164
I2412
sS'17th-century Indian writers'
p2165
I33
sS'English people of Libyan descent'
p2166
I4042
sS'Monarchs of Sikkim'
p2167
I1543
sS'Rajiv Gandhi National Quality Award recipients'
p2168
I2821
sS'People from Vaishali district'
p2169
I2708
sS'People from Washim district'
p2170
I2728
sS'Books by Amartya Sen'
p2171
I305
sS'A. P. J. Abdul Kalam'
p2172
I244
sS'Rolle family'
p2173
I3648
sS'English mountain climbers'
p2174
I3763
sS'Shah Ismail Shaheed'
p2175
I2915
sS'Indian sportsmen'
p2176
I1231
sS'People from Kapurthala district'
p2177
I2137
sS'Aamir Khan'
p2178
I138
sS'People from Karnataka'
p2179
I2147
sS'American people by occupation and ethnic or national origin'
p2180
I3401
sS'Indian cinematographers'
p2181
I616
sS'Indian lyricists'
p2182
I914
sS'British marketing people'
p2183
I3909
sS'People from Sheopur district'
p2184
I2551
sS'English missionaries'
p2185
I3801
sS'English computer programmers'
p2186
I3839
sS'Indian Railways officers'
p2187
I1170
sS'Politicians of Indian descent'
p2188
I2789
sS'American educators'
p2189
I3254
sS'Aam Aadmi Party politician stubs'
p2190
I137
sS'Satavahana dynasty'
p2191
I2893
sS'Linguists from England'
p2192
I3901
sS'Emperors of India'
p2193
I419
sS'American salespeople'
p2194
I3398
sS'Presidents of India'
p2195
I2799
sS'English people of Lebanese descent'
p2196
I4021
sS'People from Narsinghpur district'
p2197
I2361
sS'People from Nilgiris district'
p2198
I2374
sS'People from Nadia district'
p2199
I2336
sS'People from Firozpur district'
p2200
I1971
sS'United States presidential electors, 1892'
p2201
I3514
sS'American hermits'
p2202
I3110
sS'Jharkhand Party politicians'
p2203
I1370
sS'Ilyas Shahi dynasty'
p2204
I504
sS'Journalists by publication in India'
p2205
I1372
sS'Indian television chefs'
p2206
I1258
sS'Films produced by Krishnam Raju'
p2207
I452
sS'Chief Justices of the High Courts of India'
p2208
I352
sS'Novels by Kiran Desai'
p2209
I1587
sS'Mayors of places in India'
p2210
I1515
sS'National School of Drama alumni'
p2211
I1571
sS'Indian amputees'
p2212
I538
sS'Indian men'
p2213
I955
sS'Indian materialists'
p2214
I942
sS'People from Kushinagar district'
p2215
I2218
sS'People from Gomati district'
p2216
I1999
sS'People from Virar'
p2217
I2719
sS'Indian sportspeople stubs'
p2218
I1238
sS'Guadeloupean people of Indian descent'
p2219
I475
sS'Indian industrialists'
p2220
I862
sS'Communist Party of India politician stubs'
p2221
I373
sS'Nobel laureates from West Bengal'
p2222
I1582
sS'Indian male film directors'
p2223
I926
sS'Lists of American people by ethnic or national origin'
p2224
I3184
sS'English activists'
p2225
I3806
sS'People from Raipur district'
p2226
I2463
sS'Indian people by occupation by state'
p2227
I1032
sS'People from Nalbari district'
p2228
I2349
sS'English people of Greek descent'
p2229
I4018
sS'Rashtriya Lok Dal politicians'
p2230
I2833
sS'People from Sultanpur district'
p2231
I2614
sS'Indian women scientists by state'
p2232
I1318
sS'Indian people of Austrian descent'
p2233
I1056
sS'Biographical museums in West Yorkshire'
p2234
I3945
sS'People from Bikaner'
p2235
I1815
sS'People from Kohima district'
p2236
I2183
sS'Government ministers of India'
p2237
I472
sS'Indian people by occupation and century'
p2238
I1030
sS'Indian dancers'
p2239
I642
sS'People from Gonda, Uttar Pradesh'
p2240
I2001
sS'Indian expatriates in the United Arab Emirates'
p2241
I797
sS'Activists from Bihar'
p2242
I142
sS'English people by occupation and century'
p2243
I3930
sS'People from Paschim Medinipur district'
p2244
I2416
sS'English people of Polish descent'
p2245
I4007
sS'African American stubs'
p2246
I3196
sS'People from Rampur district'
p2247
I2483
sS'Indian writers by century'
p2248
I1331
sS'United States presidential electors, 1924'
p2249
I3527
sS'Lists of Indian sportspeople'
p2250
I1435
sS'People from Jalore district'
p2251
I2080
sS'Kidnapped American children'
p2252
I3140
sS'People from Jhajjar district'
p2253
I2099
sS'Lists of political office-holders in India'
p2254
I1448
sS'People from Godda district'
p2255
I1996
sS'Indian writers'
p2256
I1330
sS'People by city in Madhya Pradesh'
p2257
I1639
sS'People from Ichalkaranji'
p2258
I2057
sS'People from Ambattur'
p2259
I1687
sS'Indian emigrants to Suriname'
p2260
I731
sS'Indian designers'
p2261
I648
sS'People of Indian descent by occupation'
p2262
I2759
sS'Salar Jung family'
p2263
I2883
sS'Indian female aviators'
p2264
I804
sS'Indian expatriates in Australia'
p2265
I760
sS'Indian businesspeople by century'
p2266
I586
sS'People from North West Delhi district'
p2267
I2386
sS'American producers'
p2268
I3413
sS'People from Manipur'
p2269
I2281
sS'Kidnapped Indian children'
p2270
I1403
sS'Lane Fox family'
p2271
I3741
sS'American erotica people'
p2272
I3382
sS'Mexican people of Indian descent'
p2273
I1536
sS'People with acquired Indian citizenship'
p2274
I2776
sS'Indian police officers'
p2275
I1128
sS'People from Sivaganga district'
p2276
I2582
sS'People from Thalassery'
p2277
I2639
sS'People from Mysore'
p2278
I2332
sS'Writers in British India'
p2279
I3097
sS'18th-century Indian artists'
p2280
I35
sS'American butchers'
p2281
I3367
sS'People from Kandhamal district'
p2282
I2126
sS'People from Tripura by occupation'
p2283
I2675
sS'People from Aizawl district'
p2284
I1667
sS'Indian political candidates'
p2285
I1131
sS'Indian Wiccans'
p2286
I1281
sS'People from Agra district'
p2287
I1661
sS'Pollard family'
p2288
I3653
sS'People from Hubli- Dharwad'
p2289
I2053
sS'Pratt family (England)'
p2290
I3668
sS'Gibson family of Saffron Walden'
p2291
I3720
sS'Indian military engineers'
p2292
I960
sS'Theroux family'
p2293
I3167
sS'People from Araria district'
p2294
I1708
sS'English people of Hungarian descent'
p2295
I4023
sS'Indian expatriates in the United States'
p2296
I799
sS'Irish people of Indian descent'
p2297
I1348
sS'Followers of Meher Baba'
p2298
I454
sS'Swabhimani Paksha politicians'
p2299
I2971
sS'People from Nandurbar district'
p2300
I2356
sS'Clevland family'
p2301
I3689
sS'Activists from Telangana'
p2302
I165
sS'Mahls'
p2303
I1487
sS'People from Gulbarga'
p2304
I2010
sS'People from Uttara Kannada'
p2305
I2695
sS'Indian women artists'
p2306
I1286
sS'American people of Arab descent'
p2307
I3486
sS'Burial sites of English families'
p2308
I3709
sS'Indian Armenians'
p2309
I547
sS'English people of Brazilian descent'
p2310
I4033
sS'Bickford-Smith family'
p2311
I3746
sS'English people by occupation by city'
p2312
I3913
sS'Indian poker players'
p2313
I1126
sS'People from Bellary'
p2314
I1780
sS'People from Jabalpur'
p2315
I2065
sS'People from Damoh district'
p2316
I1885
sS'American war casualties'
p2317
I3116
sS'Activists from Varanasi'
p2318
I169
sS'People by city in Bihar'
p2319
I1628
sS'English Christians'
p2320
I3628
sS'American orchardists'
p2321
I3385
sS'English surveyors'
p2322
I3816
sS'Jharkhand Vikas Morcha (Prajatantrik) politicians'
p2323
I1371
sS'People from Muzaffarnagar district'
p2324
I2329
sS'21st-century Indian sportspeople'
p2325
I116
sS'People of the Vijayanagara Empire'
p2326
I2774
sS'Indian prisoners sentenced to life imprisonment'
p2327
I1155
sS'Women from Manipur'
p2328
I3056
sS'Indian expatriates in China'
p2329
I766
sS'People from Katni district'
p2330
I2157
sS'People from Rupnagar district'
p2331
I2505
sS'People from North Delhi district'
p2332
I2380
sS'People from Krishnagiri district'
p2333
I2209
sS'Jammu and Kashmir academics'
p2334
I1354
sS'Indian emigrants to Trinidad and Tobago'
p2335
I738
sS'Paralympic medalists for India'
p2336
I1611
sS'Activists from Mizoram'
p2337
I158
sS'People from Solapur district'
p2338
I2588
sS'People from Pali district'
p2339
I2401
sS'Indian scholars of ancient Greek philosophy'
p2340
I1192
sS'Indian Islamic religious leaders'
p2341
I880
sS'LGBT writers from India'
p2342
I1425
sS'Disciples and friends of Swami Vivekananda'
p2343
I399
sS'People from Jalandhar'
p2344
I2073
sS'People of the Research and Analysis Wing'
p2345
I2773
sS'Lists of people by city in India'
p2346
I1440
sS'Revolutionary Socialist Party of Kerala (Bolshevik) politicians'
p2347
I2871
sS'American people of indigenous peoples descent'
p2348
I3481
sS'Pierrepont family'
p2349
I3656
sS'American people of the Korean War'
p2350
I3575
sS'Indian military personnel of World War II'
p2351
I970
sS'English coppersmiths'
p2352
I3892
sS'People from Bhubaneswar'
p2353
I1803
sS'American psychologists'
p2354
I3255
sS'Parr family'
p2355
I3661
sS'Indian music people'
p2356
I993
sS'People from Baksa district'
p2357
I1733
sS'Administrators of Mahe'
p2358
I187
sS'People from Sheikhpura district'
p2359
I2549
sS'Indian religion academics'
p2360
I1173
sS'People of Romani descent'
p2361
I2766
sS'English pacifists'
p2362
I4130
sS'Indian astronomers'
p2363
I562
sS'People from Davanagere'
p2364
I1896
sS'Marathi diaspora'
p2365
I1499
sS'Indian judges'
p2366
I899
sS'People from Purnia'
p2367
I2454
sS'Indian operations researchers'
p2368
I1019
sS'American comedian stubs'
p2369
I3203
sS'Indian Institute of Technology Bombay people'
p2370
I863
sS'Townshend family'
p2371
I3699
sS'Indian enamellers'
p2372
I742
sS'Arijit Singh'
p2373
I246
sS'American artisans'
p2374
I3371
sS'People from Kutch district'
p2375
I2219
sS'Indian independence activists from Odisha'
p2376
I860
sS'People from Araria'
p2377
I1707
sS'English horticulturists'
p2378
I3878
sS'People from Ratlam district'
p2379
I2489
sS'People from Maharashtra by occupation'
p2380
I2258
sS'People from Tumkur'
p2381
I2677
sS'Shivaji'
p2382
I2922
sS'United Democratic Party (Meghalaya) politicians'
p2383
I3007
sS'Hussain Shahi dynasty'
p2384
I499
sS'English people of Trinidad and Tobago descent'
p2385
I3998
sS'Indian Institute of Technology Madras people'
p2386
I867
sS'American publishers (people)'
p2387
I3335
sS'Indo-Canadian culture'
p2388
I1341
sS'People from Cuttack district'
p2389
I1875
sS'Indian Indologists'
p2390
I861
sS'Rashtriya Lok Samata politicians'
p2391
I2834
sS'People from Pathanamthitta district'
p2392
I2419
sS'People from Goa'
p2393
I1992
sS'People from Haridwar district'
p2394
I2033
sS'Indian painters'
p2395
I1025
sS'Mumbai municipal councillors'
p2396
I1555
sS'Political families of the United States'
p2397
I3160
sS'Indian diaspora in Tanzania'
p2398
I684
sS'Indian people of Asian descent'
p2399
I1053
sS'Indian former Muslims'
p2400
I837
sS'Rajasthani people'
p2401
I2819
sS'People from Manipur by occupation'
p2402
I2283
sS'People from Aurangabad, Maharashtra'
p2403
I1725
sS'People from Chirang district'
p2404
I1863
sS'People from Salem district'
p2405
I2514
sS'English hunters'
p2406
I3875
sS'Lists of Indian people'
p2407
I1429
sS'People from Moradabad district'
p2408
I2314
sS'English gardeners'
p2409
I3762
sS'Biographical museums in London'
p2410
I3933
sS'Lefferts family'
p2411
I3169
sS'Women leaders of India'
p2412
I3073
sS'People from Barmer district'
p2413
I1764
sS'People from Mandya district'
p2414
I2279
sS'People from Aurangabad district, Maharashtra'
p2415
I1724
sS'Indian musical theatre composers'
p2416
I985
sS'People from Gopalganj district, India'
p2417
I2003
sS'Maharajas of Vadodara'
p2418
I1479
sS'People of the American Enlightenment'
p2419
I3437
sS'People from Khagaria district'
p2420
I2164
sS'English commodities traders'
p2421
I3927
sS'Indian Sikh religious leaders'
p2422
I1212
sS'Indian Catholics'
p2423
I593
sS'People from Belgaum district'
p2424
I1779
sS'Bolshevik Party of India politicians'
p2425
I303
sS'People from Hapur district'
p2426
I2028
sS'Luttrell family (of Irnham)'
p2427
I3702
sS'American military personnel by war'
p2428
I3574
sS'People from Patan district'
p2429
I2417
sS'People from Kota district'
p2430
I2200
sS'People from Sopore'
p2431
I2593
sS'English Satanists'
p2432
I3643
sS'English people of Afghan descent'
p2433
I4071
sS'American engineers'
p2434
I3258
sS'Indian nobility'
p2435
I1011
sS'Maharajas of Wankaner'
p2436
I1480
sS'People from Jamshedpur'
p2437
I2090
sS'English cricketers of 1890 to 1918'
p2438
I4106
sS'Mayors of Thane'
p2439
I1518
sS'New Zealand people of Indian descent'
p2440
I1578
sS'Mamluk Sultanate (Delhi)'
p2441
I1494
sS'Madhva religious leaders'
p2442
I1459
sS'Indian physicists'
p2443
I1121
sS'American campaign managers'
p2444
I3328
sS'Tibbetibaba'
p2445
I2993
sS'21st-century Indian businesspeople'
p2446
I97
sS'Assassinated American people by occupation'
p2447
I3404
sS'People from Korba district'
p2448
I2198
sS'Indian filmmakers'
p2449
I821
sS'Indian artisans'
p2450
I553
sS'Stucley family'
p2451
I3686
sS'Kamal Haasan'
p2452
I1385
sS'Mangaloreans'
p2453
I1495
sS'People from Bhojpur district, India'
p2454
I1800
sS'Indian actors by state'
p2455
I521
sS'English electricians'
p2456
I3895
sS'People from Marathwada'
p2457
I2286
sS'Belizean people of Indian descent'
p2458
I283
sS'Rajasthan politician stubs'
p2459
I2820
sS'People from Bahraich district'
p2460
I1732
sS'People from Mathura'
p2461
I2288
sS'21st-century Indian philosophers'
p2462
I111
sS'Manipur academics'
p2463
I1497
sS'People from Odisha by district'
p2464
I2389
sS'People from Bhavnagar'
p2465
I1792
sS'French Guianan people of Indian descent'
p2466
I458
sS'American neopagans'
p2467
I3460
sS'English people of Palestinian descent'
p2468
I4065
sS'People from Mathura district'
p2469
I2289
sS'People from New Delhi'
p2470
I2372
sS'Indian women of World War II'
p2471
I1310
sS'American editors'
p2472
I3299
sS'West Bengal academics'
p2473
I3030
sS'Indian photojournalists'
p2474
I1120
sS'People by city in Haryana'
p2475
I1632
sS'People from Shillong'
p2476
I2552
sS'People from Deoghar district'
p2477
I1904
sS'American Vodou practitioners'
p2478
I3469
sS'Omani people of Indian descent'
p2479
I1590
sS'People from Kishtwar district'
p2480
I2178
sS'Cultural depictions of J. Edgar Hoover'
p2481
I3581
sS'Recipients of Indian military awards and decorations'
p2482
I2838
sS'People from Uttarkashi district'
p2483
I2701
sS'English lithographers'
p2484
I3848
sS'Women from Nagaland'
p2485
I3059
sS'American bakers'
p2486
I3383
sS'People from Sundergarh district'
p2487
I2616
sS'People from East Sikkim district'
p2488
I1949
sS'Indian diaspora in China'
p2489
I662
sS'People from Rewari'
p2490
I2496
sS'Uttar Pradesh academics'
p2491
I3014
sS'Indian folklorists'
p2492
I828
sS'American plumbers'
p2493
I3379
sS'Indian calligraphers'
p2494
I591
sS'People from Jaipur'
p2495
I2068
sS'Lodhi dynasty'
p2496
I1453
sS'Indian astrological writers'
p2497
I560
sS'Samajwadi Party politicians'
p2498
I2885
sS'19th-century Indian artists'
p2499
I49
sS'American people of Oceanian descent'
p2500
I3483
sS'Chandigarh academics'
p2501
I343
sS'Women from Tripura'
p2502
I3067
sS'Bharatiya Janata Party politician stubs'
p2503
I289
sS'People from Dharmapuri district'
p2504
I1917
sS'Madhya Pradesh politician stubs'
p2505
I1461
sS'People from Shahdol district'
p2506
I2542
sS'People from Surajpur district'
p2507
I2618
sS'Indian sports coaches'
p2508
I1228
sS'Expatriate actresses in India'
p2509
I424
sS'People from Giridih district'
p2510
I1990
sS'Danby family'
p2511
I3652
sS'Biographical museums in Suffolk'
p2512
I3966
sS'People from Nayagarh district'
p2513
I2367
sS'Himachal Pradesh politician stubs'
p2514
I488
sS'English people of Colombian descent'
p2515
I4099
sS'American emigrants'
p2516
I3555
sS'Coimbatore municipal councillors'
p2517
I365
sS'People from Longleng district'
p2518
I2238
sS'People of the Kingdom of Travancore'
p2519
I2771
sS'Swiss people of Indian descent'
p2520
I2975
sS'People from Lakhimpur district'
p2521
I2222
sS'Ethnic groups in Mumbai'
p2522
I421
sS'Chief Ministers of Mizoram'
p2523
I355
sS'People from Sehore'
p2524
I2533
sS'Hispanic and Latino-American people by religion'
p2525
I3476
sS'English people of Portuguese descent'
p2526
I3977
sS'Indian people of Arab descent'
p2527
I1051
sS'People from Puducherry'
p2528
I2441
sS'American shipwrights'
p2529
I3308
sS'Scientists from Varanasi'
p2530
I2902
sS'Indian male filmmakers'
p2531
I927
sS'Indian female dancers'
p2532
I805
sS'Dewan Bahadurs'
p2533
I398
sS'Indian film historians'
p2534
I820
sS'4th-century BC Indian people'
p2535
I124
sS'People from Satara district'
p2536
I2528
sS'People from Goalpara district'
p2537
I1995
sS'Communist Party of India (Marxist) politicians by state'
p2538
I369
sS'Vallabhbhai Patel'
p2539
I3019
sS'16th-century Indian people by occupation'
p2540
I18
sS'21st-century Indian actors'
p2541
I95
sS'Surveyors General of India'
p2542
I2970
sS'People from Purba Medinipur district'
p2543
I2452
sS'American accountants'
p2544
I3297
sS'English navy officers'
p2545
I3854
sS'American mnemonists'
p2546
I3326
sS'People from Nuapada district'
p2547
I2387
sS'Goan Catholics'
p2548
I471
sS'American curators'
p2549
I3285
sS'Indian emigrants to the United Arab Emirates'
p2550
I735
sS'Indian yogis'
p2551
I1337
sS'Indian people of Afghan descent'
p2552
I1048
sS'Indian cuisine in the United Kingdom'
p2553
I639
sS'Mughal clans of Pakistan'
p2554
I1546
sS'Indian Jains'
p2555
I887
sS'People from Morena'
p2556
I2316
sS'Indian diaspora by continent'
p2557
I651
sS'Characters in Silappatikaram'
p2558
I346
sS'People from Sonitpur district'
p2559
I2592
sS'People from Bathinda'
p2560
I1773
sS'People from Jalpaiguri district'
p2561
I2081
sS'People from Amravati'
p2562
I1690
sS'People from Sidhi district'
p2563
I2564
sS'Dynasties of Bengal'
p2564
I409
sS'Indian actors'
p2565
I518
sS'People from Agar Malwa district'
p2566
I1658
sS'English people of Northern Ireland descent'
p2567
I4012
sS'American social commentators'
p2568
I3342
sS'People from Mokokchung district'
p2569
I2310
sS'Vadodara municipal councillors'
p2570
I3017
sS'Prisoners and detainees of British India'
p2571
I2802
sS'A. R. Rahman'
p2572
I248
sS'People from Jammu (city)'
p2573
I2086
sS'United States presidential electors, 1888'
p2574
I3529
sS'Dalit leaders'
p2575
I385
sS'Raveendran'
p2576
I2835
sS'English people of Bangladeshi descent'
p2577
I4084
sS'Law firms of India'
p2578
I1416
sS'Konkani people'
p2579
I1409
sS'English underwater divers'
p2580
I3900
sS'People from South Andaman district'
p2581
I2595
sS'English business biography stubs'
p2582
I4118
sS'People from Thiruvalla'
p2583
I2647
sS'People from Amreli district'
p2584
I1692
sS'South African people of Indian descent'
p2585
I2938
sS'Bevan family'
p2586
I3718
sS'Indian Hindu monks'
p2587
I847
sS'Indian expatriates in Sri Lanka'
p2588
I793
sS'Cultural depictions of Calamity Jane'
p2589
I3579
sS'English scientist stubs'
p2590
I4111
sS'21st-century American women'
p2591
I3551
sS'American engineer stubs'
p2592
I3208
sS'Recipients of the Padma Bhushan in trade and industry'
p2593
I2849
sS'American people of Indo-Fijian descent'
p2594
I3494
sS'People from Jamtara district'
p2595
I2091
sS'Indian linguists'
p2596
I910
sS'Pratiharas'
p2597
I2797
sS'American women writers of Indian descent'
p2598
I226
sS'English environmentalists'
p2599
I4140
sS'People from Mansa district, India'
p2600
I2284
sS'Indian people in arts occupations'
p2601
I1044
sS'Lists of people from Maharashtra'
p2602
I1443
sS'People from Gwalior district'
p2603
I2022
sS'People from Wokha district'
p2604
I2745
sS'People from Madhya Pradesh'
p2605
I2250
sS'Indian agricultural economists'
p2606
I531
sS'12th-century Indian people'
p2607
I4
sS'Tongan people of Indian descent'
p2608
I2997
sS'Indian fascists'
p2609
I803
sS'People from Ganderbal district'
p2610
I1976
sS'People from Delhi'
p2611
I1901
sS'Meher Baba tribute albums'
p2612
I1528
sS'Indian female musicians'
p2613
I807
sS'Indian diaspora in North America'
p2614
I676
sS'People from Talegaon'
p2615
I2624
sS'People from Hoshangabad'
p2616
I2048
sS'United States presidential electors, 1884'
p2617
I3535
sS'Indian justices of the peace'
p2618
I901
sS'Overseas Indian organisations'
p2619
I1594
sS'Indian mathematicians'
p2620
I944
sS'Indian Union Muslim League politicians'
p2621
I1274
sS'American radio people stubs'
p2622
I3219
sS'Indian diaspora'
p2623
I650
sS'Mortimer family'
p2624
I3666
sS'People from Papum Pare district'
p2625
I2413
sS'American Jews by national origin'
p2626
I3482
sS'Indian social scientists'
p2627
I1220
sS'Auroville'
p2628
I267
sS'English musician stubs'
p2629
I4124
sS'20th-century Indian sculptors'
p2630
I91
sS'Screenplays by Kamal Haasan'
p2631
I2906
sS'Konkani Muslims'
p2632
I1408
sS'English shipwrights'
p2633
I3840
sS'Indian civil servants'
p2634
I619
sS'People from Faridkot, Punjab'
p2635
I1960
sS'Chhattisgarh academics'
p2636
I349
sS'English men'
p2637
I3616
sS'Indian activist stubs'
p2638
I516
sS'Recipients of the Rabindra Puraskar'
p2639
I2857
sS'People from Unakoti district'
p2640
I2691
sS'People from West Bengal by district'
p2641
I2731
sS'Advocates General for Indian states'
p2642
I189
sS'People from Yavatmal district'
p2643
I2749
sS'United States presidential electors, 1956'
p2644
I3532
sS'Lopes family'
p2645
I3752
sS'United States presidential electors, 1952'
p2646
I3543
sS'Travancore royal family'
p2647
I2998
sS'People from Dhule district'
p2648
I1925
sS'People from Surat'
p2649
I2619
sS'People from Tiruvottiyur'
p2650
I2670
sS'English artist stubs'
p2651
I4117
sS'Anglo-Indian people'
p2652
I243
sS'People from Sipahijala district'
p2653
I2575
sS'Indian Jain monks'
p2654
I883
sS'People from Dergaon'
p2655
I1906
sS'People from Sonipat district'
p2656
I2591
sS'All India Indira Congress (Tiwari) politicians'
p2657
I201
sS'People from East Delhi district'
p2658
I1942
sS'1st-century BC Indian people'
p2659
I69
sS'People from Bokaro'
p2660
I1822
sS'Indian expatriates'
p2661
I757
sS'English military personnel stubs'
p2662
I4115
sS'People from Srinagar'
p2663
I2610
sS'People from Hanumangarh district'
p2664
I2026
sS'Indian male hotelier'
p2665
I928
sS'Indian people executed abroad'
p2666
I1041
sS'People from Kokrajhar district'
p2667
I2184
sS'Indian entertainers'
p2668
I748
sS'Indian company founders'
p2669
I629
sS'Indian politicians by occupation'
p2670
I1141
sS'United States presidential electors'
p2671
I3125
sS'Indian women publishers'
p2672
I1314
sS'English Taoists'
p2673
I3638
sS'Indian Christians'
p2674
I612
sS'Thackeray family'
p2675
I3723
sS'People from Pulwama district'
p2676
I2446
sS'Halls of fame in England'
p2677
I3932
sS'American slaves'
p2678
I3561
sS'United States presidential electors, 1876'
p2679
I3522
sS'Murdered Indian children'
p2680
I1557
sS'American Muslims'
p2681
I3455
sS'English people of Belizean descent'
p2682
I4092
sS'Children of American missionaries in China'
p2683
I3149
sS'Indian sportswomen'
p2684
I1240
sS'People from Gorakhpur'
p2685
I2005
sS'Lists of people from Uttar Pradesh'
p2686
I1446
sS'Indian academics'
p2687
I511
sS'American escorts'
p2688
I3362
sS'Tibetan Buddhists from India'
p2689
I2994
sS'People from Agra'
p2690
I1660
sS'Actors from Indore'
p2691
I173
sS'English landscape architects'
p2692
I3852
sS'People from Meerut'
p2693
I2295
sS'Indian women social workers'
p2694
I1320
sS'English people of Egyptian descent'
p2695
I4049
sS'Indian marketing people'
p2696
I939
sS'People from Kadapa'
p2697
I2115
sS'Indian emigrants to Zambia'
p2698
I739
sS'18th-century Indian educators'
p2699
I36
sS'People from Upper Siang district'
p2700
I2693
sS'Australian people of Indo-Fijian descent'
p2701
I269
sS'Indian journalists'
p2702
I895
sS'People from Thiruvananthapuram by occupation'
p2703
I2649
sS'Cultural depictions of Wyatt Earp'
p2704
I3580
sS'Indians imprisoned during the Emergency (India)'
p2705
I1214
sS'Incledon family'
p2706
I3691
sS'People from Sri Muktsar Sahib'
p2707
I2608
sS"English Bah\xc3\xa1'\xc3\xads"
p2708
I3633
sS'People of the Ahom kingdom'
p2709
I2768
sS'People from Gangtok'
p2710
I1980
sS'Indian people by religion'
p2711
I1035
sS'American whalers'
p2712
I3351
sS'Soviet people of Indian descent'
p2713
I2940
sS'Indian Vaishnavites'
p2714
I1276
sS'Franklin family (Anglo-Jewish)'
p2715
I3735
sS'People from Vadodara district'
p2716
I2707
sS'Viduthalai Chiruthaigal Katchi politicians'
p2717
I3023
sS'Show business families of the United States'
p2718
I3163
sS'Indian expatriates in Hong Kong'
p2719
I771
sS'People from Puducherry district'
p2720
I2444
sS'Blennerhassett family'
p2721
I3673
sS'People from Kalahandi district'
p2722
I2120
sS'Indian emigrants to Nepal'
p2723
I721
sS'Activists from Andhra Pradesh'
p2724
I139
sS'Indian animators'
p2725
I541
sS'People from Gujarat'
p2726
I2007
sS'Indian people of Hungarian descent'
p2727
I1071
sS'Fothergill family'
p2728
I3717
sS'Prime Ministers of India'
p2729
I2800
sS'English people of Icelandic descent'
p2730
I4022
sS'Artists from Mysore'
p2731
I253
sS'Recipients of the Bharat Ratna'
p2732
I2841
sS'People from Western Assam'
p2733
I2735
sS'20th-century Indian film directors'
p2734
I77
sS'English literary critics'
p2735
I3778
sS'Canadian people of Indian descent'
p2736
I334
sS'People from Tamil Nadu by district'
p2737
I2627
sS'English reporters and correspondents'
p2738
I3861
sS'American comics creator stubs'
p2739
I3204
sS'People from Punjab, India by district'
p2740
I2450
sS'People from Etawah district'
p2741
I1955
sS'People from Jashpur district'
p2742
I2094
sS'Chavasse family (United Kingdom)'
p2743
I3706
sS'Chinese people of Indian descent'
p2744
I361
sS'English officers of arms'
p2745
I3880
sS'Indian socialites'
p2746
I1219
sS'People from Gadchiroli'
p2747
I1973
sS'People from Erode district'
p2748
I1952
sS'Ernle family'
p2749
I3647
sS'American dentists'
p2750
I3294
sS'Indian nuclear engineers'
p2751
I1013
sS'Wikipedia categories named after Indian writers'
p2752
I3037
sS'Indian art directors'
p2753
I550
sS'English academic biography stubs'
p2754
I4114
sS'Indian philatelists'
p2755
I1116
sS'People from Tikamgarh district'
p2756
I2657
sS'English dancers'
p2757
I3803
sS'Indian Jain monarchs'
p2758
I882
sS'People from Dibrugarh district'
p2759
I1927
sS'English humanitarians'
p2760
I3820
sS'People from Raisen district'
p2761
I2465
sS'Biographical museums in Warwickshire'
p2762
I3953
sS'Hindu biography stubs'
p2763
I491
sS'Indian Institute of Technology Kanpur people'
p2764
I866
sS'People from Sangrur'
p2765
I2523
sS'English people of Ugandan descent'
p2766
I4001
sS'Indian women television directors'
p2767
I1323
sS'People from Secunderabad'
p2768
I2532
sS'Indian Foreign Secretaries'
p2769
I833
sS'American religious biography stubs'
p2770
I3198
sS'Indian beekeepers'
p2771
I572
sS'People by city in Arunachal Pradesh'
p2772
I1626
sS'Burial sites of Pashtun dynasties'
p2773
I326
sS'People from Udaipur district'
p2774
I2680
sS'Scientists by city in India'
p2775
I2900
sS'People by educational institution in the United States'
p2776
I3124
sS'Indian advertising people'
p2777
I527
sS'American inventors'
p2778
I3286
sS'Activists from Goa'
p2779
I146
sS'Biographical museums in Lancashire'
p2780
I3961
sS'People from Gandhidham'
p2781
I1977
sS'People from Nashik'
p2782
I2362
sS'Medieval Indian mathematicians'
p2783
I1523
sS'People from Raebareli district'
p2784
I2457
sS'Uttarakhand academics'
p2785
I3013
sS'American public relations people'
p2786
I3319
sS'Chairmans of the National Commission for Scheduled Castes'
p2787
I340
sS'People from West Sikkim district'
p2788
I2742
sS'People from Kanpur district'
p2789
I2135
sS'People from Shopian'
p2790
I2558
sS'People from Silchar'
p2791
I2570
sS'English people of Finnish descent'
p2792
I4017
sS'English philanthropists'
p2793
I3773
sS'Indian empresses'
p2794
I741
sS'American artists'
p2795
I3311
sS'Arunachal Congress politicians'
p2796
I256
sS'Indian emigrants to Singapore'
p2797
I728
sS'People from Daman district, India'
p2798
I1884
sS'People from Jammu and Kashmir by district'
p2799
I2084
sS'Indian nanotechnologists'
p2800
I998
sS'English Muslims'
p2801
I3632
sS'American people of Romani descent'
p2802
I3495
sS'Indian National Lok Dal politicians'
p2803
I1005
sS'Ghaznavid rulers'
p2804
I467
sS'Indian centenarians'
p2805
I594
sS'Services cricketers'
p2806
I2911
sS'People from Tripura'
p2807
I2673
sS'English people of Cornish descent'
p2808
I4028
sS'English courtiers'
p2809
I3912
sS'English people of Yemeni descent'
p2810
I4041
sS'English television biography stubs'
p2811
I4110
sS'People from Rajkot'
p2812
I2471
sS'Indian polymer scientists and engineers'
p2813
I1149
sS'Chief ministers of Indian states by party'
p2814
I353
sS'English people of Kosovan descent'
p2815
I4103
sS'English mercenaries'
p2816
I3893
sS'Cotterell family'
p2817
I3716
sS'Shiv Sena politicians'
p2818
I2923
sS'St Barbe family'
p2819
I3730
sS'People from Bageshwar district'
p2820
I1730
sS'Indian emigrants to Switzerland'
p2821
I732
sS'American explorers'
p2822
I3303
sS'People by city in Chhattisgarh'
p2823
I1629
sS'American activist stubs'
p2824
I3200
sS'Indian National Congress politicians'
p2825
I1001
sS'People by city in Tamil Nadu'
p2826
I1648
sS'Indian film producers'
p2827
I823
sS'Indian people of Iranian descent'
p2828
I1073
sS'Adivasi writers'
p2829
I184
sS'Revolutionaries of the Indian Rebellion of 1857'
p2830
I2867
sS'English religious leaders'
p2831
I3866
sS'English criminals'
p2832
I3822
sS'Indian scientists'
p2833
I1198
sS'People from Madhya Pradesh by occupation'
p2834
I2252
sS'Republican Party of India (Khobragade) politicians'
p2835
I2863
sS'Indian expatriates in Nepal'
p2836
I782
sS'Indian women educators'
p2837
I1297
sS'Vinayak Damodar Savarkar'
p2838
I3026
sS'People from Pratapgarh district, Rajasthan'
p2839
I2438
sS'Indian critics'
p2840
I638
sS'Gibraltarian people of Indian descent'
p2841
I469
sS'Indian male philosophers'
p2842
I932
sS'United States presidential electors, 1976'
p2843
I3539
sS'Eastern Chalukyas'
p2844
I413
sS'People from Azamgarh district'
p2845
I1727
sS'American economist stubs'
p2846
I3207
sS'People from Srikakulam district'
p2847
I2607
sS'R. K. Narayan'
p2848
I2872
sS'Indian physiologists'
p2849
I1122
sS'West Bengal politician stubs'
p2850
I3031
sS'Heads of state of India'
p2851
I485
sS'Indian sportspeople in doping cases'
p2852
I1237
sS'People from Kanpur Dehat district'
p2853
I2134
sS'Indian political journalists'
p2854
I1132
sS'People from Ulhasnagar'
p2855
I2688
sS'Lists of office-holders in India'
p2856
I1439
sS'Andhra Pradesh academics'
p2857
I238
sS'People from Dakshin Dinajpur district'
p2858
I1881
sS'American people of Asian descent'
p2859
I3484
sS'20th-century Indian dancers'
p2860
I75
sS'English winemakers'
p2861
I3849
sS'Indian foresters'
p2862
I835
sS'Battersby family'
p2863
I3736
sS'American pipe organ builders'
p2864
I3378
sS'English experimental filmmakers'
p2865
I3836
sS'Indian people of Caribbean descent'
p2866
I1061
sS'Karrani dynasty'
p2867
I1392
sS'Akshay Kumar'
p2868
I198
sS'Novels about Indian women'
p2869
I1584
sS'People from Anantnag'
p2870
I1699
sS'Women from Uttar Pradesh'
p2871
I3069
sS'Malaysian people of Indian descent'
p2872
I1493
sS'Indian expatriate academics'
p2873
I755
sS'American sculptors'
p2874
I3345
sS'People from Malappuram district'
p2875
I2269
sS'People from Uttar Dinajpur district'
p2876
I2699
sS'American people by occupation'
p2877
I3118
sS'Indian radio producers'
p2878
I1169
sS'Pratihara empire'
p2879
I2796
sS'5th-century BC Indian people'
p2880
I126
sS'American coroners'
p2881
I3318
sS'People from Gurdaspur district'
p2882
I2017
sS'American motivational speakers'
p2883
I3293
sS'Indian murder victims'
p2884
I983
sS'People from Bijbehara'
p2885
I1813
sS"Maharaja's College alumni"
p2886
I1463
sS'Thai people of Indian descent'
p2887
I2991
sS'English people of Botswana descent'
p2888
I4093
sS'Biographical museums in Kent'
p2889
I3949
sS'Indian Tamil people'
p2890
I1256
sS'Balding family'
p2891
I3700
sS'Indian people of Baloch descent'
p2892
I1057
sS'Foreign Service brats'
p2893
I3143
sS'19th-century Indian people by occupation'
p2894
I61
sS'People from Hassan district'
p2895
I2037
sS'People from Khammam'
p2896
I2165
sS'American people in the video game industry'
p2897
I3432
sS'Rai Bahadurs'
p2898
I2814
sS'People from Nanded district'
p2899
I2355
sS'Lists of Indian politicians'
p2900
I1433
sS'English Christian socialists'
p2901
I4142
sS'English psychologists'
p2902
I3769
sS'People from Malegaon'
p2903
I2271
sS'All India Forward Bloc politicians'
p2904
I200
sS'Indian expatriates in Russia'
p2905
I788
sS"Indian women's magazines"
p2906
I1319
sS'English people of Bosnia and Herzegovina descent'
p2907
I4059
sS'People from Bijapur, Karnataka'
p2908
I1812
sS'English people of Israeli descent'
p2909
I4078
sS'Indian horticulturists'
p2910
I853
sS'Indian dance teachers'
p2911
I644
sS'Botswana people of Indian descent'
p2912
I306
sS'People from Bokaro district'
p2913
I1823
sS'Eastern Ganga dynasty'
p2914
I414
sS'Indian libertarians'
p2915
I908
sS'English economists'
p2916
I3788
sS'People from Jharsuguda district'
p2917
I2106
sS'English people of Chinese descent'
p2918
I4076
sS'English people by occupation'
p2919
I3606
sS'People from Nellore'
p2920
I2370
sS'People from Panchkula district'
p2921
I2405
sS'People from Imphal West district'
p2922
I2061
sS'People from Kannur district'
p2923
I2132
sS'Scholars from Varanasi'
p2924
I2897
sS'People from Chikkamagaluru district'
p2925
I1862
sS'English educators'
p2926
I3757
sS'Indian Engineering Service officers'
p2927
I743
sS'People from Sultanpur, Uttar Pradesh'
p2928
I2615
sS'Lists of Indian people by community'
p2929
I1430
sS'People by state in India'
p2930
I1653
sS'People from Daman and Diu'
p2931
I1882
sS'People from Sikkim by occupation'
p2932
I2569
sS'Biju Janata Dal politicians'
p2933
I299
sS'English fascists'
p2934
I4133
sS'Wikipedia categories named after Indian musicians'
p2935
I3034
sS'People from Mon district'
p2936
I2311
sS'People from Purulia district'
p2937
I2456
sS'Bahraini people of Indian descent'
p2938
I272
sS'Indian social entrepreneurs'
p2939
I1217
sS'Indian emigrants to China'
p2940
I709
sS'Activists from Chhattisgarh'
p2941
I144
sS'American business biography stubs'
p2942
I3226
sS'Sportspeople from Pune'
p2943
I2950
sS'Indian international schools in Singapore'
p2944
I874
sS'People by populated place in the United States'
p2945
I3246
sS'Jammu and Kashmir Democratic Freedom Party politicians'
p2946
I1355
sS'People from North East Delhi district'
p2947
I2381
sS'Indian prisoners of war'
p2948
I1153
sS'Zimbabwean people of Indian descent'
p2949
I3102
sS'Indian football chairmen and investors'
p2950
I832
sS'Indian Sunni Muslims'
p2951
I1249
sS'Indian Zionists'
p2952
I1338
sS'American fraudsters'
p2953
I3391
sS'Indian audio engineers'
p2954
I565
sS"Naga People's Front politicians"
p2955
I1565
sS'American sportswomen of Indian descent'
p2956
I220
sS'American disabled sportspeople'
p2957
I3180
sS'English Theosophists'
p2958
I3637
sS'Indian people of Burmese descent'
p2959
I1060
sS'Gujarati diaspora'
p2960
I478
sS'Mowbray family'
p2961
I3713
sS'Dalit activists'
p2962
I383
sS'Amartya Sen'
p2963
I207
sS'Indian actor stubs'
p2964
I522
sS'Indian radio journalists'
p2965
I1167
sS'People from Mizoram by occupation'
p2966
I2306
sS'People from Surguja district'
p2967
I2622
sS'Kerala academics'
p2968
I1397
sS'Lists of people by university or college in India'
p2969
I1441
sS'American evangelists'
p2970
I3365
sS'Juneau family'
p2971
I3173
sS'People from Aurangabad district, Bihar'
p2972
I1723
sS'People from Kasaragod district'
p2973
I2151
sS'21st-century Indian lawyers'
p2974
I104
sS'LGBT politicians from England'
p2975
I3621
sS'German people of Indian descent'
p2976
I465
sS'American sportspeople stubs'
p2977
I3222
sS'People from Sambalpur'
p2978
I2518
sS'People from Maharashtra by district'
p2979
I2257
sS'American Theosophists'
p2980
I3462
sS'Pakistani people of Hyderabadi descent'
p2981
I1596
sS'People from Hisar district'
p2982
I2045
sS'Brownlow family'
p2983
I3745
sS'Voorhees family'
p2984
I3166
sS'People from Kargil district'
p2985
I2141
sS'People from Gulbarga district'
p2986
I2011
sS'Ror'
p2987
I2876
sS'Sayyid dynasty'
p2988
I2896
sS'Indian producers'
p2989
I1156
sS'People from Shahapur'
p2990
I2540
sS'18th-century Indian writers'
p2991
I46
sS'People from Kollam'
p2992
I2192
sS'People from Katihar'
p2993
I2154
sS'Fictional American people by medium'
p2994
I3549
sS'People from Vidisha'
p2995
I2715
sS'People from Aligarh district'
p2996
I1676
sS'Indian writers by language'
p2997
I1334
sS'Sieff family'
p2998
I3728
sS'English people of Australian descent'
p2999
I4019
sS'English children'
p3000
I3595
sS'English people of Spanish descent'
p3001
I3993
sS'Cultural depictions of Sarah Palin'
p3002
I3586
sS'English people of Kenyan descent'
p3003
I4011
sS'People from Kolasib district'
p3004
I2186
sS'Murdered Indian police officers'
p3005
I1560
sS'Fictional people educated at Eton College'
p3006
I4161
sS'Ghurid dynasty'
p3007
I468
sS'Akhil Bharatiya Sena politicians'
p3008
I197
sS'People from Kodagu district'
p3009
I2181
sS'Indian actors by century'
p3010
I519
sS'American diplomats'
p3011
I3262
sS'Jewellery retailers of India'
p3012
I1366
sS'People from Asansol'
p3013
I1716
sS'Activists from Manipur'
p3014
I156
sS'Indian people of Tibetan descent'
p3015
I1100
sS'18th-century Indian judges'
p3016
I37
sS'Ramakrishna'
p3017
I2826
sS'People from Chhattisgarh'
p3018
I1856
sS'English gentry families'
p3019
I3715
sS'Indian pornographic film actors'
p3020
I1150
sS'Paramara dynasty'
p3021
I1615
sS'Maharajas of Idar'
p3022
I1469
sS'People from Bhandara district'
p3023
I1788
sS'American people of the Black Hawk War'
p3024
I3444
sS'English people of Zambian descent'
p3025
I3980
sS'Barbadian people of Indian descent'
p3026
I279
sS'Indian Christian Scientists'
p3027
I614
sS'English people of Cuban descent'
p3028
I4052
sS'Barne family'
p3029
I3679
sS'Boulton family'
p3030
I3731
sS'People from Bardhaman'
p3031
I1759
sS'American people of the Iraq War'
p3032
I3566
sS'People from Rajnandgaon'
p3033
I2473
sS'21st-century Indian painters'
p3034
I108
sS'People of the American Civil War'
p3035
I3436
sS'People from Devbhoomi Dwarka district'
p3036
I1907
sS'English socialists'
p3037
I4132
sS'American miners'
p3038
I3344
sS'Rajasthan academics'
p3039
I2818
sS'Indian Buddhist missionaries'
p3040
I578
sS'Judges of the High Courts of India'
p3041
I1374
sS'People from South West Delhi district'
p3042
I2602
sS'American nutritionists'
p3043
I3300
sS'People from Palakkad district'
p3044
I2397
sS'People from Mungeli district'
p3045
I2325
sS'American actor stubs'
p3046
I3201
sS'16th-century Indian politicians'
p3047
I20
sS'New Zealand people of Indo-Fijian descent'
p3048
I1579
sS'Indian sportsperson-politicians'
p3049
I1239
sS'Maharajas of Jammu and Kashmir'
p3050
I1472
sS'American Scientologists'
p3051
I3453
sS'People by city in Nagaland'
p3052
I1643
sS'Recipients of the Arjuna Award'
p3053
I2840
sS'People from South Garo Hills district'
p3054
I2597
sS'Indian expatriates in the United Kingdom'
p3055
I798
sS'Biographical museums on the Isle of Wight'
p3056
I3951
sS'Desi culture'
p3057
I394
sS'Indian film editors'
p3058
I819
sS'Indian Christian saints'
p3059
I613
sS'English people of Turkish descent'
p3060
I3982
sS'Lists of Indian award winners'
p3061
I1427
sS'Indian international schools'
p3062
I868
sS'Malayali people'
p3063
I1492
sS'Uttar Pradhesh scholars'
p3064
I3016
sS'20th-century Indian actors'
p3065
I71
sS'Local government officers in India'
p3066
I1451
sS'People from Mumbai Suburban district'
p3067
I2324
sS'18th-century Indian architects'
p3068
I34
sS'Krishnan Medal recipients'
p3069
I1413
sS'American shooting survivors'
p3070
I3128
sS'English people of Montenegrin descent'
p3071
I4060
sS'American Sikhs'
p3072
I3456
sS'American lawyers'
p3073
I3276
sS'Indian mechanical engineers'
p3074
I946
sS'Children of Presidents of the United States'
p3075
I3138
sS'American Satanists'
p3076
I3458
sS'English graphic designers'
p3077
I3823
sS'Indian choreographers'
p3078
I607
sS'19th-century Indian women'
p3079
I67
sS'Biographical museums in Norfolk'
p3080
I3958
sS'People from Meghalaya by district'
p3081
I2298
sS'British people of colonial India'
p3082
I318
sS'People from Sambalpur district'
p3083
I2519
sS'First Families of the United States'
p3084
I3153
sS'English antiquarians'
p3085
I3775
sS'People from Lucknow'
p3086
I2242
sS'People by era in Washington, D.C.'
p3087
I3450
sS'Shankar\xe2\x80\x93Ehsaan\xe2\x80\x93Loy'
p3088
I2917
sS'American art directors'
p3089
I3306
sS'Indian Audits and Accounts Service officers'
p3090
I566
sS'Singaporean people of Indian descent'
p3091
I2933
sS'Biographical museums in Cambridgeshire'
p3092
I3934
sS'Indian contemporary artists'
p3093
I634
sS'People from Khordha district'
p3094
I2172
sS'People from Karbi Anglong district'
p3095
I2140
sS'Women of the Kingdom of Travancore'
p3096
I3077
sS'17th-century Indian philosophers'
p3097
I30
sS'Indian diaspora in Germany'
p3098
I666
sS'People from Siang district'
p3099
I2561
sS'Legislative deputy speakers in India'
p3100
I1420
sS'People from Darbhanga district'
p3101
I1889
sS'Kozhikode municipal councillors'
p3102
I1411
sS'People from Dima Hasao district'
p3103
I1928
sS'English people of Chilean descent'
p3104
I4057
sS'American Shintoists'
p3105
I3473
sS'American casualties of World War II'
p3106
I3236
sS'English film producers'
p3107
I3787
sS'American graphologists'
p3108
I3395
sS'Indian emigrants to Indonesia'
p3109
I715
sS'Lists of people by state in the United States'
p3110
I3190
sS'Indian child businesspeople'
p3111
I601
sS'Pallava dynasty'
p3112
I1603
sS'Indian art historians'
p3113
I552
sS'English Scientologists'
p3114
I3631
sS'Goldney family'
p3115
I3677
sS'Tata family'
p3116
I2981
sS'Bharatiya Janata Party politicians'
p3117
I288
sS'Women from Gujarat'
p3118
I3047
sS'Indian historians'
p3119
I850
sS'Indian women editors'
p3120
I1295
sS'English people of Iranian descent'
p3121
I4081
sS'People from Rishikesh'
p3122
I2499
sS'Indian environmental lawyers'
p3123
I750
sS'People by city in India'
p3124
I1634
sS'Indian anarchists'
p3125
I539
sS'Indian numismatists'
p3126
I1015
sS'Business families of the United States'
p3127
I3161
sS'People from Gondia district'
p3128
I2002
sS'People from Valsad district'
p3129
I2709
sS'Masters of the Rolls'
p3130
I3858
sS'People from Maharashtra'
p3131
I2256
sS'Indian women philosophers'
p3132
I1312
sS'People from Kolhapur'
p3133
I2187
sS'People from Tribeni'
p3134
I2672
sS'Kalpana Chawla'
p3135
I1384
sS'People from Kerala by district'
p3136
I2162
sS'Indian religious sceptics'
p3137
I1176
sS'Railway officers in British India'
p3138
I2816
sS'People from Chennai by occupation'
p3139
I1852
sS'People from Hingoli district'
p3140
I2044
sS'Indian museologists'
p3141
I984
sS'Murdered Indian mobsters'
p3142
I1559
sS'19th-century Indian writers'
p3143
I68
sS'People from Aligarh'
p3144
I1675
sS'People from Ahmednagar'
p3145
I1664
sS'American orientalists'
p3146
I3292
sS'Indian-Australian culture and history'
p3147
I567
sS'People from Mount Abu'
p3148
I2320
sS'People from Banka district'
p3149
I1750
sS'People from Bhatpara'
p3150
I1791
sS'Indian expatriates in Argentina'
p3151
I759
sS'Romani people'
p3152
I2875
sS'People from Nagaland'
p3153
I2337
sS'People from Raichur'
p3154
I2458
sS'People from West Kameng district'
p3155
I2739
sS'People from Dadra and Nagar Haveli'
p3156
I1876
sS'People from Jammu and Kashmir'
p3157
I2083
sS'Indian computer scientists'
p3158
I631
sS'Female Sikh warriors'
p3159
I433
sS'Washington family'
p3160
I3694
sS'Medieval Indian historians'
p3161
I1522
sS'Early Chalukyas'
p3162
I412
sS'Roman Catholic archbishops of Agra'
p3163
I2873
sS'American psychotherapists'
p3164
I3313
sS"People's Party of Arunachal politicians"
p3165
I2775
sS'Krishnam Raju'
p3166
I1412
sS'Philosophers of Mithila'
p3167
I2778
sS'American farmers'
p3168
I3274
sS'Indian business and financial journalists'
p3169
I582
sS'People from Kolkata by occupation'
p3170
I2190
sS'British police officers in India'
p3171
I322
sS'People from Imphal East district'
p3172
I2060
sS'Indian artists by state'
p3173
I556
sS'Hoblyn family'
p3174
I3743
sS'Indian expatriates in Qatar'
p3175
I787
sS'People from Mohali district'
p3176
I2309
sS'People from Mangalore'
p3177
I2280
sS'19th-century American women'
p3178
I3553
sS'Women from Puducherry'
p3179
I3061
sS'Indian people of Portuguese descent'
p3180
I1087
sS'Schools affiliated with the Sathya Sai Organization'
p3181
I2898
sS'People from Hyderabad, India by occupation'
p3182
I2056
sS'Indian male designers'
p3183
I925
sS'People from Andhra Pradesh by occupation'
p3184
I1703
sS'Indian people of New Zealand descent'
p3185
I1082
sS'People from Simdega district'
p3186
I2572
sS'Swire family'
p3187
I3704
sS'Ombudsmen in India'
p3188
I1591
sS'American Jains'
p3189
I3457
sS'Indian poet stubs'
p3190
I1125
sS'8th-century Indian people'
p3191
I133
sS'19th-century Indian businesspeople'
p3192
I50
sS"Farmers' suicides in India"
p3193
I429
sS'Activists from Odisha'
p3194
I159
sS'Asian American stubs'
p3195
I3194
sS'Panjab University, Chandigarh alumni'
p3196
I1607
sS'Adivasi'
p3197
I178
sS'People from Jaunpur district'
p3198
I2095
sS'Artists from Chennai'
p3199
I250
sS'English models'
p3200
I3837
sS'Biographical museums in Cumbria'
p3201
I3943
sS'United States presidential electors, 1880'
p3202
I3509
sS'People from Morigaon district'
p3203
I2318
sS'English adoptees'
p3204
I3608
sS'People from Hamirpur district, Uttar Pradesh'
p3205
I2025
sS'People from Navsari district'
p3206
I2365
sS'Indian screenwriters'
p3207
I1202
sS'All India United Democratic Front politicians'
p3208
I204
sS'Indian emigrants to the Netherlands'
p3209
I733
sS'21st-century Indian artists'
p3210
I96
sS'Fictional Indian people'
p3211
I439
sS'Indian Sufis'
p3212
I1248
sS'Indian engravers'
p3213
I747
sS'Indian male television directors'
p3214
I934
sS'19th-century Indian politicians'
p3215
I64
sS'People from Samastipur district'
p3216
I2516
sS'20th-century Indian lawyers'
p3217
I81
sS'People from Kurukshetra district'
p3218
I2216
sS'English people of Indian descent'
p3219
I4082
sS'People from Palakkad'
p3220
I2396
sS'English anthropologists'
p3221
I3808
sS'Films about Gautama Buddha'
p3222
I447
sS'English fashion designers'
p3223
I3877
sS'Biographical museums in Northumberland'
p3224
I3950
sS'Indian educators by century'
p3225
I700
sS'People from Khargone'
p3226
I2169
sS'Spouses of Presidents of India'
p3227
I2957
sS'English people in the sex industry'
p3228
I3888
sS'People from Thrissur district'
p3229
I2655
sS'Chembai'
p3230
I347
sS'Lists of members of United States student societies'
p3231
I3192
sS'American rail transportation biography stubs'
p3232
I3220
sS'English gamblers'
p3233
I3827
sS'Indian diaspora in Jamaica'
p3234
I670
sS'Ramdev'
p3235
I2828
sS'People from West Singhbhum district'
p3236
I2743
sS'People from Anuppur district'
p3237
I1706
sS'Women of the Maratha Empire'
p3238
I3078
sS'People from Kanpur'
p3239
I2133
sS'Haryana academics'
p3240
I483
sS'Biographical museums in Worcestershire'
p3241
I3952
sS'American Thelemites'
p3242
I3461
sS'Indian chemical engineers'
p3243
I597
sS'English centenarians'
p3244
I3596
sS'Indian child singers'
p3245
I606
sS'Gautama Buddha in popular culture'
p3246
I463
sS'United States presidential electors, 1896'
p3247
I3512
sS'People from Karaikal district'
p3248
I2138
sS'Mughal soldiers'
p3249
I1554
sS'Tughlaq dynasty'
p3250
I3002
sS'United States presidential electors, 1972'
p3251
I3530
sS'People from Tripura by district'
p3252
I2674
sS'Medieval Indian astrologers'
p3253
I1521
sS'American deists'
p3254
I3136
sS'Subhas Chandra Bose'
p3255
I2963
sS'People from Tonk district'
p3256
I2671
sS'Indian people of Kenyan descent'
p3257
I1079
sS'Lokayuktas'
p3258
I1454
sS'3rd-century Indian people'
p3259
I123
sS'People from Kamrup district'
p3260
I2123
sS'Rashtriya Janata Party politicians'
p3261
I2832
sS'Indian poets'
p3262
I1124
sS'People from Jaisalmer district'
p3263
I2071
sS'Sikkim academics'
p3264
I2929
sS'People from Telangana by occupation'
p3265
I2637
sS'People from Bhilwara district'
p3266
I1796
sS'Republican Party of India (A) politicians'
p3267
I2862
sS'Political office-holders in India'
p3268
I2780
sS'American religious skeptics'
p3269
I3150
sS'Activists from Haryana'
p3270
I148
sS'People from Kolhapur district'
p3271
I2188
sS'People from Shajapur district'
p3272
I2547
sS'Leaders of the Pakistan Movement'
p3273
I1419
sS'Kamrupi people'
p3274
I1386
sS'People from Manipur by district'
p3275
I2282
sS'13th-century Indian women'
p3276
I7
sS'American businesswomen of Indian descent'
p3277
I212
sS'People from Chittorgarh district'
p3278
I1867
sS'Imperial Forestry Service officers'
p3279
I508
sS'English people of Tamil descent'
p3280
I4070
sS'People from Noida'
p3281
I2377
sS'Bharipa Bahujan Mahasangh politicians'
p3282
I292
sS'English people of Parsi descent'
p3283
I4072
sS'Indian nature photographers'
p3284
I1006
sS'People from Shravasti district'
p3285
I2560
sS'American people by status'
p3286
I3132
sS'Indian graffiti artists'
p3287
I843
sS'20th-century Indian writers'
p3288
I94
sS'People from Golaghat'
p3289
I1997
sS'People from Bangalore'
p3290
I1746
sS'People from Kaimur district'
p3291
I2117
sS'Indian Tamil academics'
p3292
I1255
sS'People from Dimapur district'
p3293
I1929
sS'Legislative speakers in India'
p3294
I1422
sS'People from Meghalaya'
p3295
I2297
sS'People from Surat district'
p3296
I2620
sS'Indian diaspora in South Africa'
p3297
I681
sS'Indian Internet celebrities'
p3298
I876
sS'People from Varanasi'
p3299
I2710
sS'People from Sirohi district'
p3300
I2577
sS'Gujarat politician stubs'
p3301
I481
sS'People from Bathinda district'
p3302
I1774
sS'Indian spies'
p3303
I1226
sS"Children's television channels in India"
p3304
I359
sS'People from Fatehabad, Haryana'
p3305
I1964
sS'People by city in West Bengal'
p3306
I1650
sS'Indian missionaries'
p3307
I975
sS'Indian people by occupation by city'
p3308
I1031
sS'Indian al-Qaeda members'
p3309
I535
sS'People from Supaul district'
p3310
I2617
sS'People from Balangir district'
p3311
I1735
sS'14th-century Indian women'
p3312
I9
sS'People from Goa by occupation'
p3313
I1994
sS'Cass family'
p3314
I3727
sS'Indian sculptors'
p3315
I1203
sS'People from Thrissur'
p3316
I2654
sS'People from Kangra district'
p3317
I2127
sS'Indian women by occupation'
p3318
I1288
sS'People from Alipurduar'
p3319
I1677
sS'English curators'
p3320
I3817
sS'People from Jhunjhunu district'
p3321
I2107
sS'People from Chennai district'
p3322
I1853
sS'Fictional American people by location'
p3323
I3550
sS'Indian essayists'
p3324
I753
sS'21st-century Indian film directors'
p3325
I101
sS'English philologists'
p3326
I3797
sS'Ancient Indian people'
p3327
I230
sS'People from Nagercoil'
p3328
I2343
sS'People from Parbhani'
p3329
I2414
sS'Bankes family'
p3330
I3681
sS'Chahamanas of Shakambhari'
p3331
I339
sS'Venezuelan people of Indian descent'
p3332
I3021
sS'Chahamanas of Naddula'
p3333
I338
sS'English explorers'
p3334
I3881
sS'People from Kannur'
p3335
I2131
sS'English people of Jewish descent'
p3336
I4026
sS'Fulford family'
p3337
I3692
sS'People from Mehsana district'
p3338
I2300
sS'Indian diaspora in Ghana'
p3339
I667
sS'Indian philosophers'
p3340
I1117
sS'People by city in Mizoram'
p3341
I1642
sS'Vice-Presidents of India'
p3342
I3022
sS'Indian people of Singaporean descent'
p3343
I1091
sS'United States presidential electors, 1812'
p3344
I3526
sS'People from Uttarakhand by district'
p3345
I2697
sS'Indian prisoners sentenced to death'
p3346
I1154
sS'Kings of Mysore'
p3347
I1405
sS'American child actors'
p3348
I3145
sS'People from Odisha by occupation'
p3349
I2390
sS'People from Dhule'
p3350
I1924
sS'Indian structural engineers'
p3351
I1245
sS'People from Kullu district'
p3352
I2211
sS'Indian storytellers'
p3353
I1244
sS'People from Rewa district'
p3354
I2494
sS'Indian puppeteers'
p3355
I1163
sS'American politician stubs'
p3356
I3217
sS'Lists of office-holders in the United States'
p3357
I3189
sS'Indian performance artists'
p3358
I1114
sS'19th-century Indian lawyers'
p3359
I57
sS'People from Belgaum'
p3360
I1778
sS'21st-century Indian military personnel'
p3361
I105
sS'Jamaican people of Indian descent'
p3362
I1352
sS'Ancient Indian scientists'
p3363
I233
sS'English medallists'
p3364
I3891
sS'Praja Socialist Party politicians'
p3365
I2794
sS'Indian people of French descent'
p3366
I1069
sS'People by island in the United States'
p3367
I3245
sS'Indian military leaders'
p3368
I961
sS'Indian people of Trinidad and Tobago descent'
p3369
I1101
sS'People from Korba'
p3370
I2197
sS'Boscawen family'
p3371
I3649
sS'Indian people of Brazilian descent'
p3372
I1059
sS'19th-century Indian jurists'
p3373
I56
sS'Janata Dal (United) politicians'
p3374
I1359
sS'Children of the President of India'
p3375
I358
sS'Women from Chandigarh'
p3376
I3043
sS'People from Kathua district'
p3377
I2153
sS'Indian people of Ugandan descent'
p3378
I1103
sS'Indian expatriates in Italy'
p3379
I775
sS'Biographical museums in Somerset'
p3380
I3938
sS'Cultural depictions of Harry Houdini'
p3381
I3582
sS'Lists of Indian people by school affiliation'
p3382
I1432
sS'People from Gadchiroli district'
p3383
I1974
sS'Andorran people of Indian descent'
p3384
I240
sS'Janata Party politicians'
p3385
I1360
sS'Indian dewans'
p3386
I649
sS'People from Akola district'
p3387
I1672
sS'Indian environmentalists'
p3388
I749
sS'American nursing administrators'
p3389
I3325
sS'Indian emigrants to Italy'
p3390
I718
sS'Indian production designers'
p3391
I1157
sS'People from Bhagalpur'
p3392
I1786
sS'Socialist Unity Centre of India (Communist) politicians'
p3393
I2934
sS'Indian military personnel'
p3394
I962
sS'Indian expatriates in Myanmar'
p3395
I781
sS'People from Punjab, India by occupation'
p3396
I2451
sS'People from Ranga Reddy district'
p3397
I2487
sS'Indian women television journalists'
p3398
I1324
sS'English Mesoamericanists'
p3399
I3890
sS'Activists from Chandigarh'
p3400
I143
sS'American people of Native American descent'
p3401
I3480
sS'21st-century Indian judges'
p3402
I103
sS'People from Mizoram'
p3403
I2304
sS'Sikh people stubs'
p3404
I2928
sS'Indian science journalists'
p3405
I1197
sS'Dalit politicians'
p3406
I387
sS'Lay disciples of Ramakrishna'
p3407
I1417
sS'Indian people of Czech descent'
p3408
I1064
sS'American professional gamers'
p3409
I3427
sS'American cardinals'
p3410
I3343
sS'American filibusters (military)'
p3411
I3400
sS'English agriculturalists'
p3412
I3919
sS'People by city in India by state or territory'
p3413
I1635
sS'Bengali artists'
p3414
I285
sS'Indian printers'
p3415
I1151
sS'Narayana Guru'
p3416
I1566
sS'Indian architects by century'
p3417
I545
sS'Parsi culture'
p3418
I1616
sS'African-American people by religion'
p3419
I3472
sS'Works by Sri Aurobindo'
p3420
I3094
sS'Lists of American people by occupation'
p3421
I3376
sS'American executioners'
p3422
I3282
sS'American child businesspeople'
p3423
I3146
sS'Pala dynasty (Kamarupa)'
p3424
I1600
sS'Varman dynasty'
p3425
I3020
sS'English conservationists'
p3426
I3819
sS'People from Brahmapur'
p3427
I1827
sS'English anti-communists'
p3428
I4127
sS'English army officers'
p3429
I3784
sS'Indian caricaturists'
p3430
I592
sS'People from Dadra and Nagar Haveli by district'
p3431
I1877
sS'Images of Mahatma Gandhi'
p3432
I506
sS'Indian women historians'
p3433
I1301
sS'People from Bhiwandi'
p3434
I1798
sS'English people of Azerbaijani descent'
p3435
I4043
sS'Indian people of Swedish descent'
p3436
I1097
sS'Indian Sunni Muslim scholars of Islam'
p3437
I1250
sS'Women from Mizoram'
p3438
I3058
sS'Rulers of Marwar'
p3439
I2878
sS'Rabindranath Tagore'
p3440
I2813
sS'Indian women filmmakers'
p3441
I1299
sS'Hong Kong people of Indian descent'
p3442
I496
sS'VidyaSagar'
p3443
I3025
sS'Indian sportspeople by sport'
p3444
I1235
sS'Farjeon family'
p3445
I3712
sS'American police officers'
p3446
I3265
sS'People from Imphal'
p3447
I2059
sS'American people by occupation and century'
p3448
I3430
sS'American corporate directors'
p3449
I3410
sS'Indian sailors'
p3450
I1185
sS'People from Dharamshala'
p3451
I1915
sS'People from Jorhat district'
p3452
I2111
sS'Indian nutritionists'
p3453
I1017
sS'English people of Croatian descent'
p3454
I4006
sS'Sportspeople from Bhopal'
p3455
I2945
sS'American criminologists'
p3456
I3301
sS'Chola dynasty'
p3457
I362
sS'People from Durg district'
p3458
I1940
sS'Anthony family (Susan B. Anthony)'
p3459
I3172
sS'American jewellers'
p3460
I3341
sS'Governors-General of India'
p3461
I473
sS'Fellows of the National Academy of Agricultural Sciences'
p3462
I432
sS'Gage family'
p3463
I3696
sS'Mayors of Gwalior'
p3464
I1509
sS'Military personnel of British India'
p3465
I1538
sS'Women from Goa'
p3466
I3046
sS'People from Patiala'
p3467
I2421
sS'Indian people by role'
p3468
I1036
sS'Sri Lankan people of Indian descent'
p3469
I2960
sS'People from Muzaffarpur district'
p3470
I2331
sS'American collectors'
p3471
I3421
sS'People from Indore district'
p3472
I2063
sS'People from Delhi by occupation'
p3473
I1903
sS'Indian women educational theorists'
p3474
I1296
sS'English film people'
p3475
I3911
sS'People from Mormugao'
p3476
I2319
sS'American founders'
p3477
I3593
sS'People from Mahe district'
p3478
I2261
sS'People from Sahibganj district'
p3479
I2512
sS'Indian people of Sri Lankan descent'
p3480
I1096
sS'People from Khandwa'
p3481
I2167
sS'Indian sex workers'
p3482
I1207
sS'Tata Group people'
p3483
I2982
sS'Maharajas of Alwar'
p3484
I1464
sS'Women from Maharashtra'
p3485
I3055
sS'Indian actor-politicians'
p3486
I517
sS'History of women in India'
p3487
I495
sS'People from Tehri Garhwal district'
p3488
I2634
sS'English people by religion'
p3489
I3598
sS'6th-century Indian people'
p3490
I129
sS'Bahmani Sultans'
p3491
I271
sS'Participants in the Telangana Rebellion'
p3492
I1619
sS'Indian scientist stubs'
p3493
I1201
sS'Activists from West Bengal'
p3494
I170
sS'Senior Advocates in India'
p3495
I2909
sS'American Revolutionary War casualties'
p3496
I3239
sS'People from Mau district'
p3497
I2291
sS'People of Telugu descent'
p3498
I2767
sS'Indian Buddhists'
p3499
I581
sS'Korean people of Indian descent'
p3500
I1410
sS'American scientist stubs'
p3501
I3221
sS'American Roman Catholics by occupation'
p3502
I3403
sS'People from Sangli district'
p3503
I2522
sS'21st-century Indian musicians'
p3504
I107
sS'American people in the sex industry'
p3505
I3361
sS'People from Anantapur district'
p3506
I1698
sS'Indian media people'
p3507
I947
sS'Indian Navy personnel'
p3508
I1007
sS'People from Telangana'
p3509
I2635
sS'United Goans Party politicians'
p3510
I3008
sS'Indian sports executives and administrators'
p3511
I1229
sS'People from Anantnag district'
p3512
I1700
sS'Indian Orthodox Jews'
p3513
I1023
sS'English people by locality'
p3514
I3619
sS'Wikipedia categories named after American musicians'
p3515
I3228
sS'People from Ujjain district'
p3516
I2686
sS'American criminals'
p3517
I3591
sS'Fleming family'
p3518
I3705
sS'American beekeepers'
p3519
I3392
sS'People from Goa by district'
p3520
I1993
sS'Burial sites of Muslim dynasties of India'
p3521
I325
sS'Dadra and Nagar Haveli politicians'
p3522
I382
sS'Indian optometrists'
p3523
I1021
sS'Indian people of Japanese descent'
p3524
I1077
sS'People from Daman and Diu by district'
p3525
I1883
sS'Indian dramatists and playwrights'
p3526
I695
sS'Indian secular activists'
p3527
I1205
sS'People from Yanam district'
p3528
I2748
sS'American people by century and occupation'
p3529
I3434
sS'Communist Party of India (Marxist\xe2\x80\x93Leninist) Liberation politicians'
p3530
I367
sS'18th-century Indian women'
p3531
I45
sS'Priyanka Chopra songs'
p3532
I2804
sS'English sportspeople stubs'
p3533
I4123
sS'Indian dancers by state'
p3534
I643
sS'Wikipedia categories named after Indian people'
p3535
I3035
sS'Gibbs family'
p3536
I3678
sS'Bangladeshi people of Indian descent'
p3537
I278
sS'People from Sidhi'
p3538
I2563
sS'Indian urban planners'
p3539
I1275
sS'Women from West Bengal'
p3540
I3070
sS'Bengali Hindus'
p3541
I287
sS'American occultists'
p3542
I3257
sS'People from Guna district'
p3543
I2013
sS'Lists of Indian sportswomen'
p3544
I1436
sS'Akbar'
p3545
I195
sS'American shipbuilders'
p3546
I3310
sS'Indian expatriates in Israel'
p3547
I774
sS'People from Aravalli district'
p3548
I1709
sS'Indian people of Pashtun descent'
p3549
I1085
sS'Indian agronomists'
p3550
I533
sS'Scientists of Indian descent'
p3551
I2903
sS'American cannibals'
p3552
I3106
sS'People from Ghazipur district'
p3553
I1989
sS'Fictional Holocaust survivors'
p3554
I438
sS'English people of Ethiopian descent'
p3555
I4063
sS'English actors by location of origin'
p3556
I4143
sS'People by educational institution in India'
p3557
I1652
sS'Samajwadi Janata Party politicians'
p3558
I2884
sS'People from Jhalawar district'
p3559
I2100
sS'English people of Fijian descent'
p3560
I4036
sS'Indian expatriate actors'
p3561
I756
sS'English people of I-Taukei Fijian descent'
p3562
I4087
sS'Indian mimes'
p3563
I973
sS'English military personnel'
p3564
I3838
sS'American people of the Spanish\xe2\x80\x93American War'
p3565
I3572
sS'Dravida Munnetra Kazhagam politician stubs'
p3566
I405
sS'People from Aizawl'
p3567
I1666
sS'21st-century Indian child actors'
p3568
I98
sS'American organizational theorists'
p3569
I3407
sS'Burial sites of American families'
p3570
I3155
sS'Desiya Murpokku Dravida Kazhagam politicians'
p3571
I396
sS'Ivorian people of Indian descent'
p3572
I1351
sS'People by university or college in Uttar Pradesh'
p3573
I1655
sS'Naga people'
p3574
I1564
sS'American women by occupation'
p3575
I3422
sS'People from Allahabad'
p3576
I1680
sS'English anti-fascists'
p3577
I4139
sS'Scottish people of English descent'
p3578
I3646
sS'English people of Jamaican descent'
p3579
I3989
sS'Indian spiritual teachers'
p3580
I1227
sS'Indian Mujahideen members'
p3581
I981
sS'Indian publishers (people)'
p3582
I1162
sS'Indian men by occupation'
p3583
I956
sS'Indian emigrants to Bahrain'
p3584
I705
sS'People from Idukki district'
p3585
I2058
sS'Fictional Canadian people of Indian descent'
p3586
I437
sS'Justices of the Supreme Court of India'
p3587
I1378
sS'Wikipedia categories named after American actors'
p3588
I3235
sS'People of the Kingdom of Cochin'
p3589
I2769
sS'Indian Senior Counsel'
p3590
I1206
sS'People from Ghaziabad district, India'
p3591
I1988
sS'Indian diaspora cuisine'
p3592
I654
sS'Indian sports journalists'
p3593
I1230
sS'People from Alappuzha'
p3594
I1673
sS'American people of the Boxer Rebellion'
p3595
I3569
sS'People from Kochi by occupation'
p3596
I2180
sS'American eugenicists'
p3597
I3272
sS'Diwans of Travancore'
p3598
I403
sS'Women from Chhattisgarh'
p3599
I3044
sS'American people of Indian descent'
p3600
I216
sS'Punjabi academics'
p3601
I2806
sS'People from Sehore district'
p3602
I2534
sS'People from Rajahmundry'
p3603
I2466
sS'English astrologers'
p3604
I3761
sS'American Freemasons'
p3605
I3115
sS'Indian translators'
p3606
I1273
sS'Lists of Indian writers'
p3607
I1438
sS'Politicians from Kozhikode'
p3608
I2784
sS'Novels by Anita Desai'
p3609
I1585
sS'Mayors of Pune'
p3610
I1516
sS"Women's organisations in India"
p3611
I3083
sS'Cabinet Secretaries of India'
p3612
I333
sS'People from Palamu district'
p3613
I2398
sS'Indian people of African descent'
p3614
I1049
sS'People from Visakhapatnam'
p3615
I2721
sS'3rd-century BC Indian people'
p3616
I122
sS'English designers'
p3617
I3795
sS'People from Mahendragarh district'
p3618
I2262
sS'People from Mayurbhanj district'
p3619
I2292
sS'Indian radio people'
p3620
I1168
sS'Indian writer navigational boxes'
p3621
I1329
sS'Tanzanian people of Indian descent'
p3622
I2980
sS'8th-century BC Indian people'
p3623
I132
sS'Indian art collectors'
p3624
I548
sS'People from Pathankot district'
p3625
I2420
sS'American amputees'
p3626
I3178
sS'Indian diaspora in Myanmar'
p3627
I674
sS'People from Raisen'
p3628
I2464
sS'Indian people by state by occupation'
p3629
I1037
sS'Women from Himachal Pradesh'
p3630
I3049
sS'Sathya Sai Baba'
p3631
I2894
sS'Rebel groups in India'
p3632
I2836
sS'People educated by school in Rajasthan'
p3633
I1656
sS'Biographical museums in East Sussex'
p3634
I3940
sS'Chief Ministers of Meghalaya'
p3635
I354
sS'English people of Canadian descent'
p3636
I3996
sS'Kenyan people of Indian descent'
p3637
I1396
sS'English theologians'
p3638
I3782
sS'Bal Thackeray'
p3639
I276
sS'American people convicted of fraud'
p3640
I3381
sS'American psychics'
p3641
I3359
sS'People from Bangalore Rural district'
p3642
I1748
sS'Jayadeva'
p3643
I1364
sS'Recipients of the Padma Shri in social work'
p3644
I2850
sS'Biographical museums in Tyne and Wear'
p3645
I3941
sS'People from Uttar Pradesh'
p3646
I2703
sS'Works by R. K. Narayan'
p3647
I3093
sS'People from Kendujhar district'
p3648
I2160
sS'American Assyriologists'
p3649
I3309
sS'People from Kulgam district'
p3650
I2210
sS'People from Kerala by occupation'
p3651
I2163
sS'American politicians by occupation'
p3652
I3402
sS'People by region in England'
p3653
I4149
sS'Daunt family'
p3654
I3737
sS'English evangelists'
p3655
I3853
sS'Indian women television presenters'
p3656
I1325
sS'Indian emigrants to Rhodesia'
p3657
I727
sS'People from Mirzapur'
p3658
I2302
sS'Rajput rulers'
p3659
I2824
sS'Teachers of Indian classical dance'
p3660
I2983
sS'Indian expatriates in Canada'
p3661
I765
sS'People from Mapusa'
p3662
I2285
sS'Western Chalukya Empire'
p3663
I3032
sS'English people of Georgian descent'
p3664
I4101
sS'People from Mumbai by occupation'
p3665
I2322
sS'American people of World War II'
p3666
I3576
sS'People from Muzaffarnagar'
p3667
I2328
sS'Indian expatriates in Afghanistan'
p3668
I758
sS'People from Nashik district'
p3669
I2363
sS'British people of Indo-Fijian descent'
p3670
I320
sS'American philatelist stubs'
p3671
I3225
sS'United States law enforcement biography stubs'
p3672
I3212
sS'People from Sri Muktsar Sahib district'
p3673
I2609
sS'Wadham family'
p3674
I3688
sS'Diwans of Mysore'
p3675
I402
sS'Iranian people of Indian descent'
p3676
I1345
sS'Workers Party of India politicians'
p3677
I3086
sS'English alchemists'
p3678
I3815
sS'People from Bemetara district'
p3679
I1782
sS'Odisha politician stubs'
p3680
I1589
sS'People from Hoshiarpur district'
p3681
I2050
sS'People from Tinsukia district'
p3682
I2658
sS'Indian diaspora in Thailand'
p3683
I685
sS'People from Warangal'
p3684
I2725
sS'American scientists'
p3685
I3268
sS'English Assyriologists'
p3686
I3842
sS'People from Anjaw district'
p3687
I1705
sS'Ashton family'
p3688
I3670
sS'Women from Bihar'
p3689
I3042
sS'People from Sangli'
p3690
I2521
sS'People from Lower Siang district'
p3691
I2240
sS'Ilaiyaraaja'
p3692
I502
sS'People from Lower Dibang Valley district'
p3693
I2239
sS'Chief Justices of India'
p3694
I351
sS'Indian television child actors'
p3695
I1259
sS'American underwater divers'
p3696
I3372
sS'People from Kottayam'
p3697
I2202
sS'American taxi cab drivers'
p3698
I3374
sS'Emirati people of Indian descent'
p3699
I418
sS'English bankers'
p3700
I3867
sS'People from Barnala'
p3701
I1766
sS'People from Jammu'
p3702
I2082
sS'Mayors of Coimbatore'
p3703
I1507
sS'Indian diaspora in Fiji'
p3704
I665
sS'Indian neopagans'
p3705
I1008
sS'Activists from Arunachal Pradesh'
p3706
I140
sS'Indian expatriates in Kuwait'
p3707
I778
sS'People from Sitamarhi district'
p3708
I2580
sS'English cardinals'
p3709
I3916
sS'United States presidential electors, 1864'
p3710
I3515
sS'Indian diaspora in Canada'
p3711
I661
sS'Historians in the Mughal Empire'
p3712
I494
sS'American refugees'
p3713
I3560
sS'16th-century Indian musicians'
p3714
I15
sS'Indian surveyors'
p3715
I1253
sS'American operations researchers'
p3716
I3375
sS'9th-century BC Indian people'
p3717
I134
sS'Indian law biography stubs'
p3718
I903
sS'People from Lawngtlai district'
p3719
I2233
sS'People from Saharsa district'
p3720
I2511
sS'American salon-holders'
p3721
I3428
sS'Indian aerospace engineers'
p3722
I528
sS'American socialites'
p3723
I3290
sS'Indian Jains by century'
p3724
I888
sS'English pornographic film actors'
p3725
I3856
sS'English comedians by location of origin'
p3726
I4148
sS'Bhartendu Academy of Dramatic Arts alumni'
p3727
I293
sS'French people of Indian descent'
p3728
I459
sS'People from Champawat district'
p3729
I1841
sS'Indian National Army personnel'
p3730
I999
sS'Underground Railroad people'
p3731
I3441
sS'Robin Fox family'
p3732
I3660
sS'English revolutionaries'
p3733
I4138
sS'19th-century Indian dancers'
p3734
I51
sS'Chola kings'
p3735
I363
sS'English families'
p3736
I3597
sS'People from Gurgaon'
p3737
I2018
sS'Indian architects'
p3738
I544
sS'Indian expatriates in Ivory Coast'
p3739
I776
sS'People from Bihar Sharif'
p3740
I1809
sS'People from Nalanda district'
p3741
I2347
sS'Indian rabbis'
p3742
I1166
sS'Tamil diaspora'
p3743
I2976
sS'American chairmen of corporations'
p3744
I3396
sS'Indian comics artists'
p3745
I626
sS'People from Jalgaon district'
p3746
I2077
sS'Indian Home Secretaries'
p3747
I852
sS'People from Karnal'
p3748
I2145
sS'American Subud members'
p3749
I3468
sS'17th-century Indian painters'
p3750
I27
sS'19th-century Indian people'
p3751
I60
sS'People from Davanagere district'
p3752
I1897
sS'Fellows of the Lalit Kala Akademi'
p3753
I431
sS'Sikh emperors'
p3754
I2927
sS'American people of African descent'
p3755
I3485
sS'English art critics'
p3756
I3779
sS'United States presidential electors, 1984'
p3757
I3541
sS'People from Modinagar'
p3758
I2307
sS'Ancient Indian women writers'
p3759
I235
sS'Boyd-Carpenter family'
p3760
I3753
sS'People from Karnal district'
p3761
I2146
sS'Booth family'
p3762
I3650
sS'Activists from Tripura'
p3763
I166
sS'K\xc4\x81lid\xc4\x81sa'
p3764
I1383
sS'People from South Sikkim district'
p3765
I2599
sS'Indian religious biography stubs'
p3766
I1174
sS'People convicted under the Comstock laws'
p3767
I3186
sS'Indira Gandhi'
p3768
I1340
sS'English marketing people'
p3769
I3910
sS'People from Madhepura district'
p3770
I2247
sS'People from Patna'
p3771
I2423
sS'American politicians with physical disabilities'
p3772
I3182
sS'Indian explorers'
p3773
I801
sS'Indian expatriates in France'
p3774
I769
sS'Indian musicians by city'
p3775
I989
sS'Indian emigrants to New Zealand'
p3776
I722
sS'People from Khammam district'
p3777
I2166
sS'Rashtriya Janata Dal politicians'
p3778
I2831
sS'People from Karimnagar district'
p3779
I2144
sS'Justice Party (India) politicians'
p3780
I1377
sS'Biographical museums in the West Midlands (county)'
p3781
I3937
sS'Shreya Ghoshal'
p3782
I2924
sS'American Hindus'
p3783
I3454
sS'People from Jalna district'
p3784
I2079
sS'Indian musicians'
p3785
I988
sS'Indian roboticists'
p3786
I1181
sS'Maharajas of Bhavnagar'
p3787
I1465
sS'People from Kishanganj district'
p3788
I2177
sS'British people of Parsi descent'
p3789
I321
sS'Indian expatriates in the Soviet Union'
p3790
I796
sS'People by insular area of the United States by religion'
p3791
I3479
sS'Indian diaspora in Guyana'
p3792
I668
sS'Indian people murdered abroad'
p3793
I1047
sS'People from Tamil Nadu'
p3794
I2626
sS'American jurist stubs'
p3795
I3211
sS'People from Morena district'
p3796
I2317
sS'American antiques experts'
p3797
I3384
sS'Indian people by ethnic or national origin'
p3798
I1028
sS'Women from Haryana'
p3799
I3048
sS'Communist Party of India politicians by state'
p3800
I372
sS'American pioneers'
p3801
I3438
sS'Indian politicians by city or town'
p3802
I1140
sS'Indian conservationists'
p3803
I633
sS'Burmese people of Indian descent'
p3804
I327
sS'Indian Buddhist nuns'
p3805
I580
sS'Indian emigrants to Denmark'
p3806
I710
sS'People from New Delhi district'
p3807
I2373
sS'Blind people from the United States'
p3808
I3181
sS'United States presidential electors, 1992'
p3809
I3518
sS'Anglican Bishops of Nasik'
p3810
I242
sS'Apna Dal politicians'
p3811
I245
sS'Rashleigh family'
p3812
I3672
sS'United States presidential electors, 1996'
p3813
I3517
sS'Mirisch family'
p3814
I3175
sS'People from Mandsaur'
p3815
I2277
sS'English people of Cypriot descent'
p3816
I3983
sS'People from Bihar by district'
p3817
I1807
sS'Bodo people'
p3818
I302
sS'ULFA members'
p3819
I3006
sS'Businesspeople from Mysore'
p3820
I331
sS'Indian opinion journalists'
p3821
I1020
sS'English people of Saint Lucian descent'
p3822
I3992
sS'People from Mahoba district'
p3823
I2265
sS'English women by occupation'
p3824
I4125
sS'People from Chamba, Himachal Pradesh'
p3825
I1839
sS'Indian monarchs'
p3826
I977
sS'English chefs'
p3827
I3776
sS'Legislative leaders in India'
p3828
I1421
sS'People from Sivasagar'
p3829
I2583
sS'English people stubs'
p3830
I3612
sS'People from Palghar district'
p3831
I2400
sS'Hindu Mahasabha politicians'
p3832
I492
sS'Indian people of American descent'
p3833
I1050
sS'Indian warriors'
p3834
I1279
sS'People of the Kingdom of England'
p3835
I4109
sS'Culture of Indian diaspora'
p3836
I380
sS'People from Siwan district'
p3837
I2585
sS'Indian military personnel by type'
p3838
I966
sS'English people of Costa Rican descent'
p3839
I4102
sS'People from Kaithal district'
p3840
I2118
sS'4th-century Indian people'
p3841
I125
sS'20th-century Indian people'
p3842
I86
sS'People from Vasco da Gama, Goa'
p3843
I2712
sS'People of the Maurya Empire'
p3844
I2772
sS'LGBT people from India'
p3845
I1424
sS'19th-century Indian architects'
p3846
I48
sS'Indian people stubs'
p3847
I1111
sS'Shreya Ghoshal albums'
p3848
I2925
sS'Indian Muslim pacifists'
p3849
I996
sS'Shreya Ghoshal songs'
p3850
I2926
sS'People from Boudh district'
p3851
I1826
sS'Indian art educators'
p3852
I551
sS'Paralympic swimmers of India'
p3853
I1613
sS'American Jews'
p3854
I3478
sS'Maharajas of Kutch'
p3855
I1474
sS'All India Trinamool Congress politicians'
p3856
I203
sS'People from Betul district'
p3857
I1784
sS'People from East Champaran district'
p3858
I1941
sS'Indian political philosophers'
p3859
I1134
sS'Recipients of the Dronacharya Award'
p3860
I2842
sS'Indian people of Nepalese descent'
p3861
I1081
sS'People from Yamuna Nagar district'
p3862
I2747
sS'People from Ludhiana'
p3863
I2244
sS'Indian expatriates in Austria'
p3864
I761
sS'People from Bhuj'
p3865
I1804
sS'People by university or college in India'
p3866
I1654
sS'Critics of Sathya Sai Baba'
p3867
I379
sS'Indian politicians with physical disabilities'
p3868
I1148
sS'American animists'
p3869
I3465
sS'Brahmin titles'
p3870
I309
sS'People from Lakshadweep'
p3871
I2225
sS'Indian Christian monks'
p3872
I609
sS'Tamil Nadu academics'
p3873
I2978
sS'Indian people of South American descent'
p3874
I1093
sS'People from Upper Subansiri district'
p3875
I2694
sS'Havers family'
p3876
I3683
sS'American Confucianists'
p3877
I3471
sS'People from Anantapur, Andhra Pradesh'
p3878
I1697
sS'People from Karur district'
p3879
I2150
sS'Wikipedia categories named after Puerto Rican people'
p3880
I3230
sS"Indian children's rights activists"
p3881
I604
sS'People from Madhya Pradesh by district'
p3882
I2251
sS'Indian comics writers'
p3883
I627
sS'People from Khandwa district'
p3884
I2168
sS'Maharajas of Rajasthan'
p3885
I1477
sS'People from Palghar'
p3886
I2399
sS'Indian male child actors'
p3887
I921
sS'17th-century Indian people by occupation'
p3888
I29
sS'American people of the Vietnam War'
p3889
I3565
sS'Zambian people of Indian descent'
p3890
I3100
sS'Afghan people of Indian descent'
p3891
I190
sS'People from Kamarhati'
p3892
I2122
sS'Indian feminist writers'
p3893
I811
sS'Mahatma Gandhi'
p3894
I1486
sS'Telugu Desam Party politicians'
p3895
I2987
sS'American chief technologists'
p3896
I3389
sS'Overturned convictions in the United States'
p3897
I3122
sS'Indian male television presenters'
p3898
I935
sS'Shiromani Akali Dal politicians'
p3899
I2921
sS'People from Himachal Pradesh by district'
p3900
I2042
sS'People from Barabanki, Uttar Pradesh'
p3901
I1754
sS'People from Akluj'
p3902
I1670
sS'Indian courtesans'
p3903
I636
sS'People from Ujjain'
p3904
I2685
sS'English television personalities by location of origin'
p3905
I4154
sS'People from Rajasthan by occupation'
p3906
I2469
sS'Indian expatriates in Iran'
p3907
I773
sS'People from Palai'
p3908
I2395
sS'Indian memoirists'
p3909
I954
sS'Books about Swami Vivekananda'
p3910
I304
sS'People from Jodhpur'
p3911
I2109
sS'People from Osmanabad district'
p3912
I2392
sS'Swedish people of Indian descent'
p3913
I2974
sS'English printers'
p3914
I3780
sS'Peerage of England stubs'
p3915
I4122
sS'Indian women writers'
p3916
I1328
sS'English people of Huguenot descent'
p3917
I4073
sS'Valpy-Fulton-Jeffreys family'
p3918
I3734
sS'Indian inventors'
p3919
I877
sS'16th-century Indian philosophers'
p3920
I19
sS'Asom Gana Parishad politicians'
p3921
I258
sS'People from Amroha district'
p3922
I1695
sS'Gautama Buddha'
p3923
I462
sS'16th-century Indian women'
p3924
I22
sS'United States presidential electors, 1844'
p3925
I3506
sS'People from Farrukhabad district'
p3926
I1962
sS'People from Dhenkanal district'
p3927
I1921
sS'People from Madurai'
p3928
I2253
sS'Tribal people from Assam'
p3929
I2999
sS'Kannada people'
p3930
I1388
sS'People from Nawada district'
p3931
I2366
sS'21st-century Indian sculptors'
p3932
I115
sS'Murdered Indian royalty'
p3933
I1561
sS'American substance abuse counselors'
p3934
I3405
sS'People from Sangrur district'
p3935
I2524
sS'Marathi people'
p3936
I1500
sS'People from Faridabad district'
p3937
I1958
sS'Indian guerrillas'
p3938
I844
sS'English people of Salvadoran descent'
p3939
I4051
sS'People from Kanchipuram district'
p3940
I2125
sS'Indian people of Iraqi descent'
p3941
I1074
sS'People from Telangana by district'
p3942
I2636
sS'United States presidential electors, 1840'
p3943
I3510
sS'People from Cachar district'
p3944
I1835
sS'People from Mewat district'
p3945
I2301
sS'Malayali diaspora'
p3946
I1490
sS'Indian women mathematicians'
p3947
I1309
sS'Indonesian people of Indian descent'
p3948
I1344
sS'English business theorists'
p3949
I3813
sS'Indian monks by century'
p3950
I979
sS'American loggers'
p3951
I3364
sS'People from Baloda Bazar district'
p3952
I1738
sS'Airy family'
p3953
I3726
sS'Scindia dynasty of Gwalior'
p3954
I2904
sS'Indian religious leaders'
p3955
I1175
sS'American translators'
p3956
I3322
sS'American philanthropists'
p3957
I3589
sS'Twin people from India'
p3958
I3004
sS'Monastic disciples of Ramakrishna'
p3959
I1544
sS'Women from Odisha'
p3960
I3060
sS'People from Lakhimpur Kheri district'
p3961
I2223
sS'Indian Protestants'
p3962
I1159
sS'American people of South American descent'
p3963
I3492
sS'21st-century Indian politicians'
p3964
I113
sS'People from Perambalur district'
p3965
I2426
sS'Businesspeople from Kozhikode'
p3966
I330
sS'People from Jamui district'
p3967
I2092
sS'Indian Theosophists'
p3968
I1270
sS'People from Sonbhadra district'
p3969
I2589
sS'American landowners'
p3970
I3397
sS'People from Kolkata'
p3971
I2189
sS'Municipal Commissioners of India'
p3972
I1556
sS'Quami Ekta Dal politicians'
p3973
I2812
sS'American woodworkers'
p3974
I3419
sS'English Sikhs'
p3975
I3639
sS'Indian people of Slavic descent'
p3976
I1092
sS'Premchand'
p3977
I2798
sS'People from Amritsar'
p3978
I1693
sS'6th-century BC Indian people'
p3979
I128
sS'American crime biography stubs'
p3980
I3206
sS'English women'
p3981
I3617
sS'People from Alipurduar district'
p3982
I1678
sS'19th-century Indian judges'
p3983
I55
sS'Surinamese people of Indian descent'
p3984
I2969
sS'Indian television journalists'
p3985
I1260
sS'Indian engineers by state'
p3986
I746
sS'Indian Anglicans'
p3987
I540
sS'People from Jodhpur district'
p3988
I2110
sS'People from Tuensang district'
p3989
I2676
sS'Indian women radio people'
p3990
I1315
sS'20th-century Indian artists'
p3991
I73
sS"National People's Party politicians"
p3992
I1570
sS'People from Vijayawada'
p3993
I2717
sS'Chilean people of Indian descent'
p3994
I360
sS'People from Amritsar district'
p3995
I1694
sS'Indian independence activists'
p3996
I859
sS'Indian diaspora in Afghanistan'
p3997
I656
sS'Indian chemists'
p3998
I598
sS'Indian Islamic creationists'
p3999
I879
sS'Indian planters'
p4000
I1123
sS'Women from Jharkhand'
p4001
I3051
sS'People from Puducherry by occupation'
p4002
I2443
sS'People from Banaskantha district'
p4003
I1742
sS'Indian magazine people'
p4004
I916
sS'People from Fatehgarh Sahib'
p4005
I1965
sS'American computer specialists'
p4006
I3426
sS'People of British India'
p4007
I2755
sS'Indian sociologists'
p4008
I1222
sS'American people of Caribbean descent'
p4009
I3487
sS'People from Mamit district'
p4010
I2273
sS'Naturalised citizens of India'
p4011
I1572
sS'People from Ahmedabad'
p4012
I1662
sS'Wildenstein family'
p4013
I3171
sS'People from Hoshangabad district'
p4014
I2049
sS'People from Kozhikode'
p4015
I2204
sS'Indian emigrants to Australia'
p4016
I704
sS'Assassinated Indian people'
p4017
I262
sS'Fictional American people by ethnic or national origin'
p4018
I3547
sS'People from North Goa district'
p4019
I2383
sS'People from Sagar district'
p4020
I2507
sS'Indo-Guyanese people'
p4021
I1343
sS'Norvell family'
p4022
I3156
sS'People from Irinjalakuda'
p4023
I2064
sS'People from South Goa district'
p4024
I2598
sS'Indian international schools in Saudi Arabia'
p4025
I873
sS'People from Dindigul district'
p4026
I1930
sS'Khilji dynasty'
p4027
I1402
sS'People from Nizamabad district'
p4028
I2376
sS'People from Kannauj district'
p4029
I2130
sS'American people of Greenlandic descent'
p4030
I3497
sS'People from Mau'
p4031
I2290
sS'Hindavi people'
p4032
I489
sS"Bodoland People's Front politicians"
p4033
I301
sS'English miners'
p4034
I3870
sS'American spiritual mediums'
p4035
I3360
sS'People from Bishnupur district'
p4036
I1821
sS'Indian sportspeople by state of India'
p4037
I1236
sS'People from Tawang Town'
p4038
I2632
sS'English republicans'
p4039
I4135
sS'Works by Indian writers'
p4040
I3089
sS'People from Kadapa district'
p4041
I2116
sS'People from Ambedkar Nagar district'
p4042
I1688
sS'Electoral history of Indian politicians'
p4043
I416
sS'All India Anna Dravida Munnetra Kazhagam politicians'
p4044
I199
sS'People from Kupwara district'
p4045
I2213
sS'Wikipedia categories named after American people'
p4046
I3114
sS'Indian directors'
p4047
I693
sS'18th-century Indian scientists'
p4048
I43
sS'People from Bageshwar'
p4049
I1729
sS'19th-century Indian photographers'
p4050
I63
sS'Indian people of the Indian Rebellion of 1857'
p4051
I1099
sS'People from Krishnagar'
p4052
I2208
sS'Indian reporters and correspondents'
p4053
I1177
sS'Nawabs of India'
p4054
I1576
sS'Administrators in the princely states of India'
p4055
I186
sS'Indian people of Mauritian descent'
p4056
I1080
sS'People from Karauli district'
p4057
I2139
sS'People from Lakshadweep district'
p4058
I2227
sS'English mathematicians'
p4059
I3770
sS'Indian government officials'
p4060
I842
sS'People from Gajapati district'
p4061
I1975
sS'People of Dougla descent'
p4062
I2756
sS'Indian diaspora in Indonesia'
p4063
I669
sS'Indian management scientists'
p4064
I938
sS'American marketing people'
p4065
I3387
sS'Recipients of the Ananda Purashkar'
p4066
I2839
sS'Writers from Mysore'
p4067
I3096
sS'Indian clergy'
p4068
I622
sS'Languages of the Indian diaspora'
p4069
I1415
sS'English merchants'
p4070
I3841
sS'People from Rajkot district'
p4071
I2472
sS'Peerage of England'
p4072
I3898
sS'English chiropractors'
p4073
I3789
sS'Indian international schools in Oman'
p4074
I871
sS'English sociologists'
p4075
I3882
sS'Jewish Indian politicians'
p4076
I1367
sS'People from Viluppuram district'
p4077
I2718
sS'Indian escapees'
p4078
I751
sS'People from Thanjavur district'
p4079
I2643
sS'English classical scholars'
p4080
I3796
sS'United States biographical dictionaries'
p4081
I3113
sS'Paralympic powerlifters of India'
p4082
I1612
sS'Indian expatriates in Japan'
p4083
I777
sS'American men by occupation'
p4084
I3425
sS'Indian software engineers'
p4085
I1223
sS'People from Jaisalmer'
p4086
I2070
sS'Revolutionary Socialist Party (India) politicians'
p4087
I2870
sS'English criminals by location of origin'
p4088
I4155
sS'Pattali Makkal Katchi politicians'
p4089
I1622
sS'People from Yadgir district'
p4090
I2746
sS'English songwriters'
p4091
I3811
sS'American people of Indian descent in health professions'
p4092
I217
sS'Indian people by period'
p4093
I1033
sS'Indian artists by century'
p4094
I555
sS'Indian emigrants to Fiji'
p4095
I711
sS'People from Firozabad'
p4096
I1969
sS'People from Shopian district'
p4097
I2559
sS'20th-century Indian musicians'
p4098
I84
sS'Caribbean people of Indian descent'
p4099
I336
sS'People from Salem, Tamil Nadu'
p4100
I2515
sS'People from Jehanabad district'
p4101
I2096
sS'Indian women in politics'
p4102
I1303
sS'People from Chandrapur district'
p4103
I1848
sS"Indian children's television series"
p4104
I605
sS'Women from Andhra Pradesh'
p4105
I3039
sS'People from Kanyakumari district'
p4106
I2136
sS'English people of South African descent'
p4107
I3994
sS'19th-century Indian Jain monks'
p4108
I53
sS'English people by rank'
p4109
I3602
sS'English feminists'
p4110
I4134
sS'People from Solan district'
p4111
I2586
sS'Communist Party of India (Marxist) politicians'
p4112
I368
sS'People from Diu'
p4113
I1932
sS'People from Ashoknagar'
p4114
I1717
sS'American boilermakers'
p4115
I3393
sS'Indian Olympic medalist stubs'
p4116
I1018
sS'English people of Japanese descent'
p4117
I4079
sS'Majlis-e-Ittehadul Muslimeen politicians'
p4118
I1488
sS'People of Punjabi descent'
p4119
I2765
sS'Indian emigrants to Canada'
p4120
I708
sS'Mayors of Kanpur'
p4121
I1511
sS'Indian Revenue Service officers'
p4122
I1178
sS'People from Kendrapara district'
p4123
I2159
sS'People from Ambarnath'
p4124
I1686
sS'Gaekwad dynasty'
p4125
I460
sS'English exercise instructors'
p4126
I3907
sS'Assassinated Indian journalists'
p4127
I261
sS'Ombudsmen in England'
p4128
I3873
sS'People from Bhiwani district'
p4129
I1799
sS'English victims of crime'
p4130
I3605
sS'Haryana Janhit Congress politicians'
p4131
I484
sS'Ancient Indian writers'
p4132
I236
sS'Hungarian people of Indian descent'
p4133
I498
sS'Indian women police officers'
p4134
I1313
sS'Osbourne family'
p4135
I3659
sS'People from Mon, India'
p4136
I2312
sS'Indian columnists'
p4137
I624
sS'English Zoroastrians'
p4138
I3640
sS'Indian diaspora in Malaysia'
p4139
I672
sS'Indian emigrants to Germany'
p4140
I713
sS'American civil engineering contractors'
p4141
I3304
sS'People from Sri Ganganagar district'
p4142
I2606
s.