(dp0
S'CD NNS'
p1
I3
sS'NNP NN NNS IN JJ NN'
p2
I233
sS'NNS IN NNP ( NN )'
p3
I374
sS'NNP POS NNS IN NNP'
p4
I300
sS'JJ NNS IN DT NNP NNP'
p5
I104
sS'JJ NNS IN DT NNP NNS'
p6
I107
sS'NNS CC NNS IN NNP'
p7
I310
sS'NNP NNP NNPS IN NN'
p8
I264
sS'NNS IN NNP NNPS JJ NNS'
p9
I399
sS'NNP NNS IN NNP NNS'
p10
I291
sS'NNP NNS IN NNP NNP'
p11
I290
sS'NNS IN JJ NNS IN DT NNP NNPS'
p12
I357
sS'JJ NNS IN DT NNP IN CD'
p13
I103
sS'NNS IN DT NNP NNP NNP'
p14
I332
sS'NNS IN NN IN NNP IN NN CC NN'
p15
I371
sS'NNP NNP IN NNP ( NNP ) NN NN'
p16
I241
sS'JJ NNS IN NN NN'
p17
I124
sS'JJ NN IN JJ NN'
p18
I42
sS'NNP NNP NNS'
p19
I265
sS'NNP NNP NNP'
p20
I252
sS'NNS VBN IN NNP NNP'
p21
I429
sS'JJ NN IN JJ NNS'
p22
I43
sS'JJ NNS TO NNP CC NNP'
p23
I159
sS'JJ NN IN NNP NNP'
p24
I49
sS'NNS IN NNP NNP NNP NNP NN'
p25
I397
sS'JJ NNP IN NN'
p26
I66
sS'JJ NNP NNS IN JJ NN'
p27
I85
sS'NNP NNS IN DT NNP NNP ( NN )'
p28
I280
sS'NNS IN JJ JJ NN'
p29
I343
sS'JJ NN'
p30
I34
sS'JJ JJ NNP NNS'
p31
I19
sS'NNP NNPS JJ NNS NNS'
p32
I275
sS'NNP NNS IN NNP CC NNP'
p33
I288
sS'JJ NNP NNP ( NNP )'
p34
I74
sS'NNP NNP NN NNS'
p35
I251
sS'JJ NNP IN NNP'
p36
I67
sS'NNP NNS'
p37
I278
sS'NNS IN NNPS IN NN'
p38
I401
sS'NNS IN JJ NNS IN JJ NN'
p39
I359
sS'NNS IN JJ NNS IN JJ CC JJ NN'
p40
I358
sS'NNP NNP'
p41
I234
sS'NNP VBZ NNS'
p42
I305
sS'JJ NNP NNP NNS'
p43
I81
sS'NN NNS IN DT NNP NNPS'
p44
I186
sS'NNP VBP JJ NNS'
p45
I303
sS'DT NNP NNP NNP NNP NNP NNS'
p46
I5
sS'CD NN'
p47
I0
sS'JJ NN NNS IN NNP'
p48
I59
sS'JJ NNS IN JJ NN IN NN NNS'
p49
I114
sS'NN NNP NNP NNP NNP'
p50
I184
sS'JJ JJ NNS IN NNP NNP'
p51
I28
sS'NNP CC NN : NNP NNP NNP NNS'
p52
I192
sS'JJ NNS IN NNP NNP NNP NNP .'
p53
I137
sS'NNS IN NNP NNP NNP NNS'
p54
I398
sS'NNS IN NNP NNP NNP IN NNP'
p55
I395
sS'NNS CC NNP NNP IN NNP NNS'
p56
I307
sS'JJ NNP NNS'
p57
I84
sS'NNS IN JJ NN NNS'
p58
I350
sS'JJ NNPS'
p59
I89
sS'NNP POS NNP NNS'
p60
I299
sS'NNP NNP NNP NNP NNS'
p61
I261
sS'NNS IN NNP , NNP IN NN'
p62
I377
sS'NN IN NNP'
p63
I180
sS'NNS IN JJ NNP'
p64
I351
sS'JJ NNP NNP IN NNP ( NNP ) NNS'
p65
I77
sS'NNP POS NN IN NNP'
p66
I297
sS'NNP NNS IN NN'
p67
I286
sS'NNS IN DT JJ NN'
p68
I315
sS'NNP NNP IN NNP NNS'
p69
I247
sS'NNS IN NNP TO DT NNP NNP'
p70
I400
sS'JJ NNS IN DT JJ NNP'
p71
I96
sS'NNS IN DT NNP NN'
p72
I322
sS'NNS IN JJ NNS CC NNS'
p73
I356
sS'NNP NNP IN NNP ( NNP ) NNS IN NN'
p74
I244
sS'NNS IN NNP CC NNP NNP'
p75
I382
sS'NNS IN NNP CC NNP NNP NN'
p76
I384
sS'NNP NN NN NN NN'
p77
I229
sS'NNS IN DT NNP NNP NNP NNP IN NNP CC NNP'
p78
I334
sS'NNS CC NNS IN NNP NNP'
p79
I311
sS'JJ NNS VBP'
p80
I171
sS'NNP NNP NN'
p81
I249
sS'NNS IN JJ IN NN'
p82
I341
sS'NNP NNPS JJ NNS'
p83
I273
sS'NNS IN NNP NNP IN NN'
p84
I392
sS'JJ NNS VBD'
p85
I162
sS'JJ NN CC JJ NNS'
p86
I35
sS'JJ NNS VBN IN NNS IN NN'
p87
I169
sS'NN NNS'
p88
I185
sS'NNS IN NNS IN NN IN NNP'
p89
I407
sS'JJ NNS'
p90
I90
sS'JJ NNP'
p91
I63
sS'NNS IN DT NNP CC NNP NNP IN NN'
p92
I320
sS'RB NN'
p93
I433
sS'NNS IN NN IN NNP NNP'
p94
I372
sS'NNS IN NNP IN NN'
p95
I386
sS'NNP IN DT NNP IN NNP'
p96
I198
sS'NNP NN ( JJ NNS )'
p97
I217
sS'NNS IN NNP NN , NNP'
p98
I388
sS'NNP NNP NNS IN NN'
p99
I267
sS'NNP IN JJ NN'
p100
I199
sS'NNS NNS VBN IN NNP NNP'
p101
I419
sS'NNP CC NNP NNP NNP NNP NNS'
p102
I194
sS'JJ NN NNS'
p103
I56
sS'DT NNP NNP NNP NNS'
p104
I7
sS'NNP NNP NNP JJ NNS'
p105
I257
sS'NNS VBN IN DT NNP NNP IN NNP'
p106
I425
sS'NNP NNS IN JJ NNP'
p107
I284
sS'NNP NNS IN JJ NNS'
p108
I285
sS'JJ NNS VBN TO NN NN'
p109
I170
sS'JJ JJ NNS IN JJ NNS'
p110
I25
sS'JJ NNS IN DT NN'
p111
I99
sS'JJ NN NN NNS'
p112
I55
sS'NNS TO NNP NNP'
p113
I422
sS'NNS IN DT NNP NNP IN DT NNS'
p114
I324
sS'NNP CC NNP NNS IN JJ NN'
p115
I197
sS'JJ NNS IN JJ CC JJ NN'
p116
I110
sS'JJ NNS IN DT JJ NNP NNP'
p117
I98
sS'JJ NNS IN NNP IN DT NNP NN'
p118
I128
sS'NNP VBZ IN NNP NNP'
p119
I304
sS'JJ NNS VBN IN NN'
p120
I165
sS'NNP IN NNP NN'
p121
I203
sS'JJ NNS TO DT NNP NNP'
p122
I155
sS'NNP NN ( NNP )'
p123
I218
sS'NNS IN NNP , NNP'
p124
I375
sS'NNP NNP IN NNP'
p125
I240
sS'NNP IN JJ NNP ( NNP ) NNS'
p126
I200
sS'JJ NNS NNS IN NN'
p127
I149
sS'NNP JJ NNS IN JJ NN'
p128
I211
sS'NNS IN DT NNP NNP IN NN CC NN'
p129
I326
sS'JJ NNP NNP ( JJ NNP ) NNS'
p130
I73
sS'NNP JJ NNS IN NNP'
p131
I212
sS'JJ JJ NNS IN JJ CC JJ NN'
p132
I23
sS'NNS IN JJ JJ NNS CC NNS'
p133
I344
sS'VBN JJ NNS'
p134
I435
sS'NNP NN NN NNS'
p135
I230
sS'JJ NNS IN NNP'
p136
I126
sS'JJ NNS IN NNS'
p137
I139
sS'JJ JJ NN NN'
p138
I17
sS'JJ NNS POS NNS NNS'
p139
I153
sS'JJ NNS TO DT NNP NNPS'
p140
I157
sS'NNP NN ( NNS )'
p141
I223
sS'NNP NN ( NNP CC NN : NNP )'
p142
I219
sS'NNS IN NNS IN NNP NNP NNP'
p143
I410
sS'NNS IN NNP CC NNP IN NN'
p144
I380
sS'NNP NNS VBN IN JJ NNS'
p145
I296
sS'NNS IN NNP NN NNP , NNP'
p146
I390
sS'NN NNP NNP'
p147
I183
sS'JJ NN IN NNP'
p148
I47
sS'JJ NNS IN NN CC NN'
p149
I122
sS'NNP NNS IN NNP NNS IN NNP'
p150
I292
sS'NNS IN NNP NNP NNP NN'
p151
I396
sS'JJ NNP NN'
p152
I70
sS'NNS IN NNS IN NNP NNP'
p153
I409
sS'NNS IN NNP NNP'
p154
I391
sS'NNP CC NNP NNP NNS'
p155
I195
sS'NNS IN DT NNP'
p156
I318
sS'NNP IN NNP NNP IN NNP'
p157
I204
sS'JJ NNS CC NNS'
p158
I94
sS'NNS IN DT NNP CC NNP NNP'
p159
I319
sS'JJ NNS IN NNP NNP CC NNP NN'
p160
I134
sS'NNP , NNP NNS'
p161
I191
sS'NNS IN DT NNP NNP IN NNP'
p162
I328
sS'NNS IN DT NNP NNP IN NNS'
p163
I331
sS'JJ JJ NNS IN JJ NN'
p164
I24
sS'JJ NNS ( NN )'
p165
I92
sS'NNS IN NNS IN NNP'
p166
I408
sS'JJ JJ NNS NNS'
p167
I31
sS'JJ NNP POS NNP NNS'
p168
I88
sS'JJ NN IN NN IN NNP'
p169
I46
sS'NNS VBN IN NN IN NNP'
p170
I427
sS'NNP NN IN NNP NNP'
p171
I226
sS'NN NNS IN NNP'
p172
I187
sS'NNS IN NNP CC NNP NN'
p173
I381
sS'JJ CC JJ NNS IN NN'
p174
I11
sS'JJ NNS IN JJ NN'
p175
I113
sS'NNS IN JJ NNP NNP NN'
p176
I353
sS'NNP NNS IN NNP NN'
p177
I289
sS'JJ NNS IN DT NN NN NN'
p178
I101
sS'JJ NNP NNP NNP NNS'
p179
I79
sS'NNS IN NNS IN NNP NNPS NN NNS'
p180
I411
sS'NNP NNS IN DT NNP IN NNP'
p181
I279
sS'NNP NNP NNP ( NNP )'
p182
I253
sS'JJ NNS IN CD TO CD'
p183
I95
sS'NNS IN JJ NN IN NNP'
p184
I349
sS'DT NNP NNP NNP ( NNP ) NNS'
p185
I4
sS'JJ NNP NNP NNS IN NNP'
p186
I82
sS'NNP NN NN'
p187
I227
sS'NNS IN NN IN NNP , NNP'
p188
I369
sS'JJ JJ NNS IN NNP'
p189
I27
sS'NN IN JJ NN'
p190
I178
sS'JJ NNP IN NNP NNP NNS'
p191
I68
sS'NNP NNS VBN IN JJ NN'
p192
I295
sS'NNP CC NNP NNS'
p193
I196
sS'NNS NNP IN NNP'
p194
I417
sS'JJ NNS POS NNS'
p195
I152
sS'NNS IN DT NNP NNPS IN NN'
p196
I336
sS'JJ NN NNS VBN IN DT NN IN NN'
p197
I60
sS'NNS IN JJ NNP NN'
p198
I352
sS'JJ NNS NNS'
p199
I146
sS'IN NNP NNS'
p200
I8
sS'NNS VBN IN DT NNP NNS'
p201
I426
sS'NNP NNP IN NNP NNS IN NN'
p202
I248
sS'JJ NNS TO NNP'
p203
I158
sS'NNS IN NNP , NNP .'
p204
I376
sS'NNP JJ NNS NNS'
p205
I213
sS'JJ NNS IN NN'
p206
I120
sS'NNP NNP VBD NNS'
p207
I271
sS'NNS IN JJ NN IN DT NNP NNPS'
p208
I346
sS'JJ NN NN NN NN'
p209
I54
sS'NNS IN NNS IN JJ NN'
p210
I404
sS'JJ NNP NNPS'
p211
I83
sS'NNS VBN IN DT NNP ( NNP )'
p212
I424
sS'JJ NNP NNP NNPS'
p213
I80
sS'JJ NNS IN NN CC JJ CC JJ NN'
p214
I121
sS'NNP NNP NNS IN NNP'
p215
I268
sS'NNS IN DT NNP NNP IN NNP NNP'
p216
I329
sS'NNS IN NNP NNP NN'
p217
I393
sS'NNS IN DT NNP NNP IN NNP NNPS'
p218
I330
sS'JJ NNS IN JJ JJ NN'
p219
I112
sS'NNS CC NNS VBN IN DT NNP NNP NNP'
p220
I313
sS'JJ JJ JJ'
p221
I14
sS'JJ NNS NN NNS'
p222
I145
sS'NNP NN NNS IN DT NNP NNPS'
p223
I232
sS'JJ IN NN IN NNP'
p224
I13
sS'JJ NNS IN DT NNP NNP NNP'
p225
I105
sS'JJ NNS IN NNP CC NNP NN'
p226
I127
sS'JJ NN NNS VBP'
p227
I61
sS'JJ JJ NNS IN NNP NNP NNP'
p228
I29
sS'NNS IN NNP , NNP NNP'
p229
I378
sS'NNS IN NN IN NNP'
p230
I368
sS'JJ NN IN NN IN NN'
p231
I45
sS'NNP POS NN NNS IN NNP'
p232
I298
sS'NNS IN IN'
p233
I338
sS'NNS VBN IN NNP'
p234
I428
sS'NNS IN VBG NN'
p235
I413
sS'JJ NNS IN JJ NNS NN'
p236
I119
sS'JJ NNS IN DT NNP'
p237
I102
sS'IN NNS IN DT NNP NNPS'
p238
I9
sS'JJ NNS TO DT NNP NNP NNP'
p239
I156
sS'NNS IN NNP CD NNP NN'
p240
I385
sS'NNS IN DT JJ NNS IN NNP'
p241
I317
sS'NNS IN DT NNP NNS IN NNP'
p242
I337
sS'NNP NNP ( NNP )'
p243
I235
sS'NNP NN IN NNP'
p244
I225
sS'JJ NNS IN JJ CC JJ NN CC NN'
p245
I111
sS'NNP NNPS JJ NNS , CD'
p246
I274
sS'JJ NNS IN JJ NNP'
p247
I115
sS'NNP NNS VBN IN JJ JJ NNS'
p248
I294
sS'JJ NNS IN JJ NNS'
p249
I117
sS'JJ JJ NNP NNS VBN IN NN'
p250
I20
sS'NN IN NNS IN NNP'
p251
I182
sS'NNS IN DT NNP NNP'
p252
I323
sS'IN NNS IN NNP'
p253
I10
sS'NNP NNS IN NNP'
p254
I287
sS'NNS IN NN CC NN IN NNP'
p255
I365
sS'JJ NN NNS CC NNS'
p256
I57
sS'NNS IN DT NNP NNP NNP NNP'
p257
I333
sS'NNP NN CC NN NNS'
p258
I224
sS'NNS NNP IN JJ NNS'
p259
I416
sS'JJ JJ NNS'
p260
I21
sS'JJ IN NN CC NN IN NNP'
p261
I12
sS'JJ NN NN NN'
p262
I53
sS'NN IN DT JJ NN'
p263
I176
sS'JJ NNP NN NN'
p264
I71
sS'NNP ( NNP ) NN'
p265
I190
sS'NNS IN NNP CC NNP NNP IN NN'
p266
I383
sS'JJ NNS POS NN NN'
p267
I151
sS'JJ NNS VBD TO NN'
p268
I164
sS'NN IN DT NNP CC NNP NNP'
p269
I177
sS'JJ NN CC NN'
p270
I36
sS'NNS IN DT NNP NNP IN JJ NN'
p271
I325
sS'NNS IN JJ CD NNP NN'
p272
I340
sS'JJ NN CC NN NNS'
p273
I37
sS'NNS IN JJ NN IN DT NNP NNPS IN NN'
p274
I347
sS'NNS TO NNP'
p275
I421
sS'NNS IN NN'
p276
I364
sS'NN IN NN IN NNP'
p277
I179
sS'NNP JJ NNS'
p278
I210
sS'JJ JJ NNS IN DT NNP NNP NNP'
p279
I22
sS'JJ NNS IN NNP JJ NN'
p280
I131
sS'NNS IN JJ NNP NNS'
p281
I354
sS'NNP NN ( NNP NNP NNP )'
p282
I222
sS'JJ NN IN DT NNP NNP'
p283
I39
sS'NNP CC NNP NN'
p284
I193
sS'JJ NNP NNP IN NNP'
p285
I76
sS'NNS IN DT NNP NNP IN NN CC NN : NN'
p286
I327
sS'NNS IN JJ NNS IN NNP'
p287
I362
sS'JJ NNS NN NN'
p288
I144
sS'JJ NN IN DT NNP NNPS'
p289
I41
sS'JJ JJ NN'
p290
I16
sS'NN IN NNP NN'
p291
I181
sS'JJ NNS ( NNS )'
p292
I93
sS'NNP NN ( NNP NN )'
p293
I220
sS'JJ NNS IN NNP NNP'
p294
I133
sS'NNP NNS IN DT NNP NNP IN NNP'
p295
I281
sS'JJ JJ NNS IN NN'
p296
I26
sS'NNS IN DT JJ NNP IN CD'
p297
I316
sS'NNS VBN IN DT JJ NNP NNP NNP'
p298
I423
sS'JJ NNS WP VBD NN'
p299
I173
sS'NN NNS NNS'
p300
I188
sS'NNS IN NNS IN DT JJ NN'
p301
I402
sS'NNP NNP ( NNP ) NNS'
p302
I236
sS'JJ NNS IN NN IN NN'
p303
I123
sS'NNS IN JJR NNP NN'
p304
I363
sS'NNP NNP IN NNP NN NN'
p305
I245
sS'JJ NNS ( JJ )'
p306
I91
sS'JJ NNP NNP'
p307
I72
sS'JJ NNS JJ NNS'
p308
I143
sS'RB IN NNP NNP NNP'
p309
I430
sS'NNP JJ NNP NNS'
p310
I209
sS'JJ NNS NNS IN JJ NN'
p311
I148
sS'NNP IN NNP'
p312
I201
sS'JJ NNS IN NNP NN'
p313
I132
sS'NNP NNP NNPS'
p314
I263
sS'NNP NN NN NN'
p315
I228
sS'NNP NNP NNP NNS'
p316
I262
sS'JJ NNS VBD RB'
p317
I163
sS'NNP JJ NN NNS'
p318
I208
sS'JJ NN VBZ NNS'
p319
I62
sS'NNS CC NNS TO VB'
p320
I312
sS'NNS IN JJ NNS IN NN'
p321
I360
sS'NNP NNP NNP IN NNP ( NNP ) NNS'
p322
I255
sS'JJ NN NN'
p323
I52
sS'JJ NNS TO DT NNP'
p324
I154
sS'NNP VBD IN DT NNP NNP NNP'
p325
I301
sS'NNP NNPS NN NN NN NN'
p326
I277
sS'JJ NNS IN JJ NNP IN DT NNP NN'
p327
I116
sS'RB JJ NNS'
p328
I432
sS'NNS CC NNS IN JJ NNP'
p329
I308
sS'JJ NN IN VBG NNS'
p330
I50
sS'JJ NNS IN NNS IN DT NNP NNPS'
p331
I140
sS'NNS IN NNP CC NNP'
p332
I379
sS'NNP NNP NNS IN JJ NN'
p333
I266
sS'JJ NNP JJ NNS'
p334
I69
sS'NNP NN ( IN NNP )'
p335
I215
sS'NNS IN JJ'
p336
I339
sS'NNS IN NNP NNP NNP'
p337
I394
sS'NNP NN'
p338
I214
sS'NNP NNP NNS IN NNP NN'
p339
I269
sS'JJ NNS VBN IN NNS'
p340
I168
sS'JJ NN IN NNP CC NNP'
p341
I48
sS'JJ NNS VBN IN NNP'
p342
I166
sS'NNP NNS IN JJ NN'
p343
I283
sS'DT NNP NNP NNP NNP NNS'
p344
I6
sS'JJ NNS IN DT NN NN'
p345
I100
sS'JJ NNS IN DT NNP NNPS'
p346
I106
sS'NNS'
p347
I306
sS'NNP'
p348
I189
sS'NNS IN DT NNP IN NNP'
p349
I321
sS'NNP NNP NNP ( NNP ) NNS'
p350
I254
sS'JJ NNS IN NNP NNP NNP'
p351
I136
sS'JJ NNS VBN IN NNP NNP'
p352
I167
sS'NNP NNP IN NNP NNP NN'
p353
I246
sS'RB JJ NN'
p354
I431
sS'NNP NN NNS'
p355
I231
sS'JJ NN NNS IN NN IN NN'
p356
I58
sS'JJ NNS WP VBD IN NN NN'
p357
I172
sS'JJ NNS TO VB'
p358
I161
sS'NNS IN VBG'
p359
I412
sS'JJ NNS IN JJ NNS IN NN'
p360
I118
sS'NNS IN VBN'
p361
I414
sS'NNS POS NNP IN NNP NNS'
p362
I420
sS'VBN NNS IN NNP'
p363
I437
sS'NNP NNPS IN NNP'
p364
I272
sS'NNP NNP NNP NNP NNP NNS'
p365
I260
sS'NNP IN NNS IN DT NNP NNPS'
p366
I206
sS'NNP NNP , NNP NNS'
p367
I237
sS'JJ JJ NNS VBP'
p368
I33
sS'NNS IN NN IN DT NNP NNPS'
p369
I367
sS'NNS IN JJ NN'
p370
I345
sS'NNP IN NNP CC NNP'
p371
I202
sS'NNP NNP POS NNP NNS'
p372
I270
sS'JJ NN JJ NNS'
p373
I51
sS'NNS NN'
p374
I415
sS'JJ NN IN DT NNP NNP NNP'
p375
I40
sS'JJ JJ JJ NNS'
p376
I15
sS'JJ NN IN DT NNP'
p377
I38
sS'NNS IN NNS IN DT NNP NNPS'
p378
I403
sS'JJ NNS IN NNS NNS'
p379
I142
sS'JJ NNP CC NNP NNP NNS'
p380
I64
sS'NNP VBD NN'
p381
I302
sS'JJ NNS IN NNP IN NN'
p382
I129
sS'NNS IN JJ NNS IN NN NN'
p383
I361
sS'NNP NNP IN NNP ( NNP ) NNP NNS'
p384
I242
sS'JJ NNP NNP NN NN'
p385
I78
sS'NNP NNP NNP IN NNP NNS'
p386
I256
sS'JJ NNS IN NNS NN'
p387
I141
sS'JJ NNS IN NNP NNP NN'
p388
I135
sS'NNS IN JJ NN IN NN'
p389
I348
sS'NNP NNS NNS'
p390
I293
sS'NNP NNP NNP NN NN'
p391
I258
sS'CD NNP JJ NNS'
p392
I2
sS'JJ NNS TO NNP NNP'
p393
I160
sS'NNS IN NNS IN NN IN DT NNP NNPS'
p394
I406
sS'NN'
p395
I175
sS'JJ NNP NNP ( NNP ) NNS'
p396
I75
sS'NNS IN DT NNP NNP NNP NNP NNP'
p397
I335
sS'NNS IN NN IN NNP , NNP .'
p398
I370
sS'CD NN NNS'
p399
I1
sS'NNP NN ( JJ )'
p400
I216
sS'JJ NNS IN NNP NNP PRP'
p401
I138
sS'NNP NNP IN NNP ( NNP ) NNS'
p402
I243
sS'JJ JJ NNS IN NNP NNP PRP'
p403
I30
sS'JJ NNS IN NN NNS'
p404
I125
sS'NNS IN NNP'
p405
I373
sS'NNP NNPS NN NN NN'
p406
I276
sS'JJ NNP POS NNP NNP NNS'
p407
I87
sS'NNP NN ( NNP NNP )'
p408
I221
sS'NNS IN NNS IN NN CC NN IN NNP'
p409
I405
sS'NNS IN NNP NN'
p410
I387
sS'VBG NN'
p411
I434
sS'JJ NNS NNS NNS'
p412
I150
sS'JJ NNS NNS CC NNS'
p413
I147
sS'JJ NNP IN JJ NN'
p414
I65
sS'NNS IN JJ NNS'
p415
I355
sS'JJ NN IN NN'
p416
I44
sS'NNP NNP NNP NNP'
p417
I259
sS'NNP NNP IN DT NNP NNP'
p418
I238
sS'NNS CC NNS IN JJ NNS'
p419
I309
sS'NNP NNP NN NN'
p420
I250
sS'JJ NNS IN DT NNPS'
p421
I109
sS'JJ NNS IN DT JJ NNP IN CD'
p422
I97
sS'NNP NNP IN JJ NN'
p423
I239
sS'JJ NNP NNS TO DT NNP NNP'
p424
I86
sS'NNS IN NN CC NN IN NNP NNP'
p425
I366
sS'NNP IN NNP NNS IN NNP'
p426
I205
sS'NNS IN DT JJ JJ'
p427
I314
sS'JJ JJ NN NNS'
p428
I18
sS'VBN NNS IN DT NNP NNPS'
p429
I436
sS'NNS IN NNP NN , NNP NNP'
p430
I389
sS'NNS IN JJ JJ JJ NNS'
p431
I342
sS'NNP NNS IN DT NNP NNPS'
p432
I282
sS'JJ NNS IN DT NNP NNS IN NNP'
p433
I108
sS'NNS NNS'
p434
I418
sS'JJ NNS IN NNP IN NNP'
p435
I130
sS'JJ JJ NNS VBN IN NN'
p436
I32
sS'JJ VBZ IN NNP'
p437
I174
sS'NNP JJ NN NN'
p438
I207
s.