(dp0
S'20th-century Indian military personnel'
p1
I82
sS"Indian Bah\xc3\xa1'\xc3\xads"
p2
I570
sS'People from Chhattisgarh by district'
p3
I1857
sS'Indian imams'
p4
I857
sS'People from Shimoga district'
p5
I2556
sS'People by city in Jharkhand'
p6
I1636
sS'Advaitin philosophers'
p7
I188
sS'Peasants and Workers Party of India politicians'
p8
I1623
sS'People from Darrang district'
p9
I1892
sS'Indian women film people'
p10
I1300
sS'Communist Party of India politicians'
p11
I371
sS'Indian business writers'
p12
I590
sS'People from Rajsamand district'
p13
I2477
sS'People from the Andaman and Nicobar Islands'
p14
I2644
sS'People from Hisar, India'
p15
I2046
sS'People from Bhopal district'
p16
I1802
sS'Indian shipbuilders'
p17
I1211
sS'People from Senapati district'
p18
I2535
sS'People from North Sikkim district'
p19
I2384
sS'People from Adilabad district'
p20
I1657
sS'17th-century Indian artists'
p21
I24
sS'British people of Indian descent'
p22
I319
sS'Czech people of Indian descent'
p23
I381
sS'Indian politicians by party by state'
p24
I1143
sS'Indian investigative journalists'
p25
I878
sS'People from Darjeeling district'
p26
I1891
sS'Dutch people of Indian descent'
p27
I408
sS'Bahujan Vikas Aghadi politicians'
p28
I274
sS'Indian diaspora in Barbados'
p29
I660
sS'People from Kozhikode district'
p30
I2205
sS'Indian women by role'
p31
I1291
sS'Indian women jurists'
p32
I1307
sS'People from North Tripura district'
p33
I2385
sS'Indian politicians by century'
p34
I1139
sS'People from Munger district'
p35
I2326
sS'Alumni by secondary school in India'
p36
I206
sS'People from Khunti district'
p37
I2174
sS'People from Wardha district'
p38
I2727
sS'Indian emigrants to Sri Lanka'
p39
I730
sS'People from Gopalpur, Nadia'
p40
I2004
sS'People of Goan descent'
p41
I2757
sS'People from West Tripura district'
p42
I2744
sS'Lok Satta Party politicians'
p43
I1457
sS'People from Ratlam'
p44
I2488
sS'Nawabs of Bhopal'
p45
I1574
sS'Indian diaspora in New Zealand'
p46
I675
sS'Telugu film families'
p47
I2989
sS'Indian field hockey biography stubs'
p48
I812
sS'Indian women religious leaders'
p49
I1316
sS'People from Balrampur district'
p50
I1740
sS'Chennai municipal councillors'
p51
I348
sS'People from Visakhapatnam district'
p52
I2722
sS'Chalukya dynasty'
p53
I341
sS'Indian expatriates in South Africa'
p54
I791
sS'People from Poonch district, India'
p55
I2433
sS'Indian people with disabilities'
p56
I1113
sS'People from Diu district'
p57
I1933
sS'People from Bhopal'
p58
I1801
sS'American female singers of Indian descent'
p59
I215
sS'People from Sirmaur district'
p60
I2576
sS'People from Chhota Udaipur district'
p61
I1860
sS'20th-century Indian people by occupation'
p62
I87
sS'Scottish people of Indian descent'
p63
I2905
sS'People of Kashmiri descent'
p64
I2764
sS'People from North 24 Parganas district'
p65
I2378
sS'Japanese people of Indian descent'
p66
I1362
sS'People from Raichur district'
p67
I2459
sS'Murdered Indian journalists'
p68
I1558
sS'People from Auraiya district'
p69
I1722
sS'Indian women in business'
p70
I1302
sS'People from Porvorim'
p71
I2436
sS'Mayors of Mangalore'
p72
I1514
sS'Women of the Kingdom of Cochin'
p73
I3075
sS'Indian Jews by occupation'
p74
I894
sS'People from Rayagada district'
p75
I2491
sS'Dalit artists'
p76
I384
sS'Indian royalty'
p77
I1182
sS'Paralympic competitors for India'
p78
I1610
sS'Indian musician stubs'
p79
I991
sS'Mirza Ghulam Ahmad'
p80
I1539
sS'Indian billionaires'
p81
I573
sS'Indian Muslim historians'
p82
I995
sS'People from Tirap district'
p83
I2659
sS'American women scientists of Indian descent'
p84
I225
sS'People from Dahod district'
p85
I1879
sS'Indian international schools in Qatar'
p86
I872
sS'People from Maldah district'
p87
I2270
sS'Works by Mirza Ghulam Ahmad'
p88
I3092
sS'Meitei people'
p89
I1529
sS'Assam academics'
p90
I259
sS'Indian founders'
p91
I838
sS'People from Sabarkantha district'
p92
I2506
sS'Tripuri people'
p93
I3001
sS'Indian child actresses'
p94
I600
sS'People from Ballia district'
p95
I1737
sS'People from Ladakh'
p96
I2220
sS'People from Murshidabad district'
p97
I2327
sS'Activists from Delhi'
p98
I145
sS'People from East Kameng district'
p99
I1946
sS'People from Mandi district'
p100
I2274
sS'Pakistani people of Indian descent'
p101
I1597
sS'People from Chandigarh'
p102
I1845
sS'Indian literary critics'
p103
I911
sS'People by city in Uttar Pradesh'
p104
I1649
sS'Indian diaspora in the United Arab Emirates'
p105
I687
sS'People from Shahjahanpur district'
p106
I2545
sS'People from Golaghat district'
p107
I1998
sS'Indian film singers'
p108
I825
sS'Indian astronauts'
p109
I561
sS'Lakshadweep politicians'
p110
I1414
sS'Sportspeople from Udaipur'
p111
I2953
sS'People by city in Manipur'
p112
I1641
sS'People from North and Middle Andaman district'
p113
I2379
sS'People by city in Goa'
p114
I1630
sS'Indian sceptics'
p115
I1190
sS'People from Rajasthan'
p116
I2467
sS'Communist Party of India (Maoist) politicians'
p117
I366
sS'Devotees of Sri Chinmoy'
p118
I397
sS'Khasi people'
p119
I1401
sS'Kashmiri people'
p120
I1394
sS'People from Tamil Nadu by occupation'
p121
I2628
sS'People from Karimganj district'
p122
I2142
sS'Indian diaspora in the United States'
p123
I689
sS'Mizoram academics'
p124
I1541
sS'S. P. Balasubrahmanyam'
p125
I2942
sS'People from Nagaland by occupation'
p126
I2339
sS'People from Medak'
p127
I2293
sS'Indian people of Colombian descent'
p128
I1063
sS'People from Nizamabad'
p129
I2375
sS'Israeli people of Indian descent'
p130
I1349
sS'Indian lawyers by type'
p131
I905
sS'Former Indian townships in South Africa'
p132
I456
sS'Maharajas of Nawanagar'
p133
I1475
sS"Women's sport in India"
p134
I3085
sS'Austrian people of Indian descent'
p135
I270
sS'People from Bilaspur district, Chhattisgarh'
p136
I1818
sS'Western Ganga dynasty'
p137
I3033
sS'Indian chefs'
p138
I596
sS'Images of Indian people'
p139
I505
sS'Universities and colleges affiliated with the Sathya Sai Organization'
p140
I3009
sS'People from Jamnagar'
p141
I2088
sS'Indian male dancers'
p142
I924
sS'Indian victims of crime'
p143
I1277
sS'People murdered in Chandigarh'
p144
I2751
sS'Indian women scientists'
p145
I1317
sS'Mughal princes'
p146
I1552
sS'Indian Theravada Buddhists'
p147
I1271
sS'People from Dhemaji district'
p148
I1920
sS'People from Tiruchirappalli'
p149
I2660
sS'People from Nagaland by district'
p150
I2338
sS'Indian schoolteachers'
p151
I1194
sS'Muslim dynasties of India'
p152
I1562
sS'People from Haryana by occupation'
p153
I2036
sS'Indian diaspora in Kenya'
p154
I671
sS'Mlechchha dynasty'
p155
I1542
sS'People from Pithoragarh district'
p156
I2431
sS'People from Nabarangpur district'
p157
I2334
sS'People from Mandsaur district'
p158
I2278
sS'Trinidad and Tobago people of Indian descent'
p159
I3000
sS'Recipients of the Shanti Swarup Bhatnagar Prize for Science and Technology'
p160
I2860
sS'People from Tawang district'
p161
I2631
sS'YSR Congress politicians'
p162
I3099
sS'People from Lalitpur district, India'
p163
I2228
sS'Cochin Jews'
p164
I364
sS'Maharajas of Kolhapur'
p165
I1473
sS'People from Nalgonda district'
p166
I2351
sS'People from Phek district'
p167
I2428
sS'Indian prisoners and detainees'
p168
I1152
sS'Indian social democrats'
p169
I1216
sS'Indian police officers killed in the line of duty'
p170
I1129
sS'Administrators in British India'
p171
I185
sS'Recipients of the Padma Vibhushan in social work'
p172
I2854
sS'Fictional Bengali characters'
p173
I435
sS'Indian Jain writers'
p174
I890
sS'People from Bagpat district'
p175
I1731
sS'People from Serchhip district'
p176
I2539
sS'Indian broadcasters'
p177
I577
sS'Hyderabad State politicians'
p178
I501
sS'Maharajas of Travancore'
p179
I1478
sS'Indian sportspeople'
p180
I1233
sS'People from Parbhani district'
p181
I2415
sS'Sukumar Ray'
p182
I2965
sS'Mauritian people of Indian descent'
p183
I1505
sS'Indian businesspeople'
p184
I585
sS'Rashtrakuta dynasty'
p185
I2830
sS'Indian supercentenarians'
p186
I1251
sS'People from South West Garo Hills district'
p187
I2603
sS'Pakistan Movement activists'
p188
I1599
sS'Indian Quran reciters'
p189
I1165
sS'Revolutionary Communist Party of India politicians'
p190
I2868
sS'Indian collectors'
p191
I623
sS'People from Mumbai City district'
p192
I2323
sS'Indian agnostics'
p193
I530
sS'Indian people of Irish descent'
p194
I1075
sS'Indian male journalists'
p195
I929
sS'Gahadavala dynasty'
p196
I461
sS'Members of Central Legislative Assembly of India'
p197
I1530
sS'Indian scholars of Islam'
p198
I1193
sS'Adivasi activists'
p199
I179
sS'People from Barwani district'
p200
I1770
sS'Brazilian people of Indian descent'
p201
I312
sS'Activists from Rajasthan'
p202
I162
sS'People from Churu district'
p203
I1869
sS'People from Saharanpur'
p204
I2509
sS'People from Rohtas District'
p205
I2502
sS'Maharashtrawadi Gomantak Party politicians'
p206
I1485
sS'Pashtun dynasties'
p207
I1621
sS'Indian political party founders'
p208
I1133
sS'People from Thane'
p209
I2640
sS'People from Banda district'
p210
I1743
sS'Indian artists'
p211
I554
sS'Indian expatriates in Spain'
p212
I792
sS'People from Ramgarh district'
p213
I2482
sS'20th-century Indian judges'
p214
I79
sS'People from Panihati'
p215
I2408
sS'Indian diaspora in Oceania'
p216
I677
sS'Indian people of Turkish descent'
p217
I1102
sS'Disciples of Gautama Buddha'
p218
I400
sS'Andaman and Nicobar Islands politicians'
p219
I237
sS'Ugandan people of Indian descent'
p220
I3005
sS'17th-century Indian scientists'
p221
I31
sS'Indian female models'
p222
I806
sS'Canadian people of Indo-Fijian descent'
p223
I335
sS'People from Bharatpur district'
p224
I1789
sS'People from Katihar district'
p225
I2155
sS'People from Nainital district'
p226
I2346
sS'People from Srinagar district'
p227
I2611
sS'Indian women lawyers'
p228
I1308
sS'Paramahansa Yogananda'
p229
I1614
sS'Indian expatriates in Malaysia'
p230
I779
sS'Bihar politician stubs'
p231
I298
sS'Indian emigrants to Ireland'
p232
I716
sS'People from Gaya district'
p233
I1985
sS'People from Chandel district'
p234
I1844
sS'Sena dynasty'
p235
I2908
sS'People from Barabanki district'
p236
I1753
sS"Indian People's Front politicians"
p237
I1109
sS'People from Chittoor district'
p238
I1866
sS'Brahmos'
p239
I310
sS'Indian science and technology awards'
p240
I1195
sS'Sportspeople from Kozhikode'
p241
I2948
sS'20th-century Indian politicians'
p242
I89
sS'Indian male social workers'
p243
I933
sS'Criminals from Maharashtra'
p244
I377
sS'Criminals from Mumbai'
p245
I378
sS'People from East Jaintia Hills district'
p246
I1945
sS'Bal Gangadhar Tilak'
p247
I275
sS'15th-century Indian people by occupation'
p248
I12
sS'People from Agartala'
p249
I1659
sS'People from Nagaon district'
p250
I2340
sS'17th-century Indian musicians'
p251
I26
sS'Odisha academics'
p252
I1588
sS'Activists from Sikkim'
p253
I163
sS'Indian writer stubs'
p254
I1336
sS'People from Vizianagaram'
p255
I2723
sS'15th-century Indian people'
p256
I11
sS'American people of Parsi descent'
p257
I218
sS'Indian scientists by state'
p258
I1200
sS'People from Kiphire district'
p259
I2176
sS'People from Jharkhand'
p260
I2103
sS'People from Amethi district'
p261
I1689
sS'People from Sirsa district'
p262
I2578
sS'People from Barpeta district'
p263
I1769
sS'Indian American'
p264
I537
sS'Chief ministers of Puducherry'
p265
I356
sS'People from Fatehpur district'
p266
I1967
sS'Hong Kong people of Parsi descent'
p267
I497
sS'Activists from Gujarat'
p268
I147
sS'People from West Godavari district'
p269
I2737
sS'People from Koppal district'
p270
I2195
sS'Indian systems scientists'
p271
I1254
sS'People from Shimla'
p272
I2553
sS'People from Buldhana district'
p273
I1831
sS'Indian noble families'
p274
I1012
sS'People from Uttarkashi'
p275
I2700
sS'Lists of people from Uttarakhand'
p276
I1445
sS'Indian people of Russian descent'
p277
I1088
sS'People of British Burma'
p278
I2754
sS'People from Pimpri-Chinchwad'
p279
I2430
sS'Indian film people'
p280
I822
sS'People from Guntur district'
p281
I2016
sS'People from Ajmer district'
p282
I1669
sS'Women of the Mughal Empire'
p283
I3080
sS'Indian Latin American'
p284
I902
sS'People by district in India'
p285
I1651
sS'Indian people of Scottish descent'
p286
I1090
sS'People from Kaushambi district'
p287
I2158
sS'Political families of India'
p288
I2779
sS'Indian rebels'
p289
I1171
sS'Daman and Diu politicians'
p290
I389
sS'Order of the Indian Empire'
p291
I1593
sS'People from Chikkaballapur district'
p292
I1861
sS'Indian emigrants to France'
p293
I712
sS'11th-century Indian women'
p294
I3
sS'African people of Indian descent'
p295
I191
sS'Fiji Indian organisations'
p296
I445
sS'Indian military personnel killed in action'
p297
I968
sS'18th-century Indian sportspeople'
p298
I44
sS'People by city in Kerala'
p299
I1638
sS'Indian Jain religious leaders'
p300
I886
sS'Followers of Sathya Sai Baba'
p301
I455
sS'Indian academics by state'
p302
I512
sS'People by city in Puducherry'
p303
I1645
sS'Kakatiya dynasty'
p304
I1381
sS'People from Saran district'
p305
I2527
sS'American sportspeople of Indian descent'
p306
I219
sS'Indian statisticians'
p307
I1243
sS'People from Pali, Rajasthan'
p308
I2402
sS'Indian people of Yemeni descent'
p309
I1107
sS'Indian beauty pageant winners'
p310
I571
sS'Kalakshetra alumni'
p311
I1382
sS'Ancient Indian mathematicians'
p312
I228
sS'Sur Empire'
p313
I2968
sS'Indian magicians'
p314
I917
sS'Recipients of the Jnanpith Award'
p315
I2845
sS'Satyajit Ray'
p316
I2895
sS'Indian music educators'
p317
I987
sS'Indian aviators'
p318
I568
sS'Criminals from Haryana'
p319
I376
sS'Mayors of Kochi'
p320
I1512
sS'People from Jammu and Kashmir by occupation'
p321
I2085
sS'People from Sikar district'
p322
I2566
sS'People from Mizoram by district'
p323
I2305
sS'People from Ramban district'
p324
I2481
sS'People from Ranchi'
p325
I2485
sS'People by city in Maharashtra'
p326
I1640
sS'Indian National Congress (Socialist)'
p327
I1003
sS'People from Tumkur district'
p328
I2678
sS'People from Puri district'
p329
I2453
sS'Indian pacifists'
p330
I1024
sS'Indian people of Belgian descent'
p331
I1058
sS'South Asian American organizations'
p332
I2939
sS'Indian Jains by occupation'
p333
I889
sS'Bharatiya Jan Sangh politicians'
p334
I290
sS'People from Budaun district'
p335
I1828
sS'Indian expatriates in Nigeria'
p336
I784
sS'Indian women in war'
p337
I1304
sS'People from Balaghat district'
p338
I1734
sS'Indian male television producers'
p339
I936
sS'Indian people of World War II'
p340
I1106
sS'People from Zunheboto district'
p341
I2750
sS'Baroda State'
p342
I280
sS'Ramakrishna Mission'
p343
I2827
sS'People from East Godavari district'
p344
I1944
sS'Indian Hindu religious leaders'
p345
I848
sS'Ancient Indian women'
p346
I234
sS'People from Pakur district'
p347
I2394
sS'People by city in Assam'
p348
I1627
sS'People from Kollam district'
p349
I2193
sS'People from Dharwad'
p350
I1918
sS'People from Theni district'
p351
I2646
sS'Mayors of Indore'
p352
I1510
sS'People from Dang district'
p353
I1886
sS'Indian people by century'
p354
I1027
sS"Indian People's Theatre Association people"
p355
I1110
sS'Indian women choreographers'
p356
I1292
sS'Indian male writers'
p357
I937
sS'Indian emigrants to Kenya'
p358
I719
sS'People from Bandra'
p359
I1745
sS'People from Koriya district'
p360
I2199
sS'Indian revolutionaries'
p361
I1179
sS'Women from Assam'
p362
I3041
sS'People from Koderma district'
p363
I2182
sS'19th-century Indian sportspeople'
p364
I66
sS'People from Lohardaga district'
p365
I2235
sS'People from Dakshina Kannada district'
p366
I1880
sS'Women in the Indian military'
p367
I3072
sS'People from Sirsa, Haryana'
p368
I2579
sS'People from Raigad district'
p369
I2460
sS'Indian writers by city'
p370
I1332
sS'People from Cuttack'
p371
I1874
sS'People from Umaria district'
p372
I2689
sS'Shah Rukh Khan'
p373
I2916
sS'Parsi people'
p374
I1617
sS'People from Sikar'
p375
I2565
sS'Indian magazine founders'
p376
I915
sS'People from Dindori district'
p377
I1931
sS'Mughal princesses'
p378
I1553
sS'People from Siliguri'
p379
I2571
sS'All Jharkhand Students Union politicians'
p380
I205
sS'Indian sculptors by century'
p381
I1204
sS'Gemma Doyle Trilogy'
p382
I464
sS'Indian Salafis'
p383
I1187
sS'Indian female royalty'
p384
I809
sS'People from Barpeta'
p385
I1768
sS'Works by Bharati Mukherjee'
p386
I3087
sS'Indian public relations people'
p387
I1161
sS'Indian people of Jewish descent'
p388
I1078
sS'People from Dhalai district'
p389
I1910
sS'People from Hyderabad district, India'
p390
I2054
sS'Women of the Hyderabad State'
p391
I3074
sS'People from Bangalore Urban district'
p392
I1749
sS'People from West Khasi Hills district'
p393
I2740
sS'Sachin Tendulkar'
p394
I2880
sS'People from Thoothukudi'
p395
I2651
sS'People from Assam'
p396
I1719
sS'15th-century Indian artists'
p397
I10
sS'Indian medical biography stubs'
p398
I950
sS'People from Bikaner district'
p399
I1816
sS'People from Prakasam district'
p400
I2437
sS'Politicians from Varanasi'
p401
I2788
sS'Indian humanists'
p402
I854
sS'Adaptations of works by R. K. Narayan'
p403
I175
sS'Indian journalist stubs'
p404
I898
sS'People from Kolar district'
p405
I2185
sS'Shah dynasty'
p406
I2914
sS'People from Pandalam'
p407
I2407
sS'Sangeetha Kalanidhi recipients'
p408
I2889
sS'Indian farmers'
p409
I802
sS'10th-century Indian people'
p410
I0
sS'21st-century Indian writers'
p411
I118
sS'People from Gaya, India'
p412
I1986
sS'People from Sambhal district'
p413
I2520
sS'Indian music critics'
p414
I986
sS'People from Ramanathapuram district'
p415
I2480
sS'American female musicians of Indian descent'
p416
I214
sS'Indian film actor stubs'
p417
I814
sS'Indian Ahmadis'
p418
I534
sS'People from Udalguri district'
p419
I2681
sS'AIADMK politician stubs'
p420
I193
sS'Indian merchants'
p421
I957
sS'Indian ceramists'
p422
I595
sS'People from Firozabad district'
p423
I1970
sS'Indian engineers by century'
p424
I745
sS'Martiniquais people of Indian descent'
p425
I1501
sS'British Indian media'
p426
I317
sS'Indian Administrative Service officers'
p427
I525
sS'Indian Institute of Technology Guwahati people'
p428
I865
sS'People from Ri-Bhoi district'
p429
I2498
sS'Indian mining engineers'
p430
I974
sS'People from Dibang Valley district'
p431
I1926
sS'Rai Sahibs'
p432
I2817
sS'Indian Shaivites'
p433
I1208
sS'Adivasi literature'
p434
I180
sS'Spanish people of Indian descent'
p435
I2941
sS'Lists of Indians by state'
p436
I1434
sS'People from Jharkhand by district'
p437
I2104
sS'Mayors of Vadodara'
p438
I1519
sS'20th-century Indian scientists'
p439
I90
sS'Emeritus Professors in India'
p440
I417
sS'People from Lunglei district'
p441
I2246
sS'Lists of people from Tamil Nadu'
p442
I1444
sS'People from Chamoli district'
p443
I1840
sS'Surat municipal councillors'
p444
I2967
sS'American women of Indian descent'
p445
I223
sS'Meghalaya academics'
p446
I1524
sS'Indian curators'
p447
I640
sS'Belgian people of Indian descent'
p448
I282
sS'People from Bulandshahr district'
p449
I1830
sS'Members of the Mizoram Legislative Assembly'
p450
I1532
sS'Indian expatriates in Bangladesh'
p451
I763
sS'People from Uttar Pradesh by occupation'
p452
I2705
sS'Bihar academics'
p453
I295
sS'Lists of Indian women'
p454
I1437
sS'Indian emigrants'
p455
I703
sS'Seuna (Yadava) dynasty'
p456
I2912
sS'People from Panipat'
p457
I2409
sS'Atal Bihari Vajpayee'
p458
I264
sS'Indian people of Icelandic descent'
p459
I1072
sS'Beauty pageant contestants from India'
p460
I281
sS'Sportspeople from Indore'
p461
I2946
sS'People from Jhansi district'
p462
I2102
sS'Indian emigrants to Botswana'
p463
I707
sS'Sindhi diaspora'
p464
I2932
sS'21st-century Indian journalists'
p465
I102
sS'Indian people of Swiss descent'
p466
I1098
sS'Scientists from Andaman and Nicobar Islands'
p467
I2901
sS'Indian people of Assyrian descent'
p468
I1054
sS'People from Sri Ganganagar'
p469
I2605
sS'Ezhava'
p470
I426
sS'Bengali diaspora'
p471
I286
sS'16th-century Indian people'
p472
I17
sS'People from West Bengal by occupation'
p473
I2732
sS'People from Ranchi district'
p474
I2486
sS'Activists from Maharashtra'
p475
I155
sS'Malayali organizations'
p476
I1491
sS'Karnataka politician stubs'
p477
I1391
sS'Immigrants to India'
p478
I507
sS'People from Pune'
p479
I2447
sS'People from Changlang district'
p480
I1849
sS'Indian male musicians'
p481
I931
sS'People from Hailakandi district'
p482
I2023
sS'People from Andhra Pradesh by district'
p483
I1702
sS'People from Tikamgarh'
p484
I2656
sS'Indian multimedia artists'
p485
I982
sS'Activists from Madhya Pradesh'
p486
I154
sS'People from Gariaband district'
p487
I1983
sS'People from Gandhinagar'
p488
I1978
sS'Ilaiyaraaja albums'
p489
I503
sS'Indian medical academics'
p490
I948
sS'People from Dehradun district'
p491
I1900
sS'Diwans of Cochin'
p492
I401
sS'People from Rudraprayag district'
p493
I2504
sS'Punjabi-Canadian culture'
p494
I2807
sS'People from Seoni district'
p495
I2536
sS'Sikkim Sangram Parishad politicians'
p496
I2931
sS'Recipients of the Padma Shri in trade and industry'
p497
I2852
sS'Indian Sikhs'
p498
I1213
sS'Indian Jain politicians'
p499
I885
sS'Indian civil engineers'
p500
I618
sS'People from Nagpur district'
p501
I2345
sS'People from Chhatarpur'
p502
I1854
sS'Indian emigrants to Oman'
p503
I724
sS'People from Ashoknagar district'
p504
I1718
sS'Indian people imprisoned abroad'
p505
I1042
sS'People of Kannada descent'
p506
I2763
sS'Activists from Jammu and Kashmir'
p507
I150
sS'Schools affiliated with the Sri Aurobindo Ashram'
p508
I2899
sS'20th-century Indian jurists'
p509
I80
sS'Women from Sikkim'
p510
I3064
sS'Mayors of Kozhikode'
p511
I1513
sS'20th-century Indian philosophers'
p512
I88
sS'People from Kasganj district'
p513
I2152
sS'Indian editors'
p514
I697
sS'Businesspeople of Indian descent'
p515
I332
sS'People of Indian descent'
p516
I2758
sS'Recipients of the Padma Bhushan in social work'
p517
I2848
sS'Indian Marxist historians'
p518
I940
sS'18th-century Indian painters'
p519
I39
sS'Vidya Balan'
p520
I3024
sS'Maharana Pratap'
p521
I1481
sS'Indian film award winners'
p522
I815
sS'Indian police chiefs'
p523
I1127
sS'7th-century BC Indian people'
p524
I130
sS'Indian people of Chinese descent'
p525
I1062
sS'Indian satirists'
p526
I1188
sS'Recipients of the Indira Gandhi Peace Prize'
p527
I2843
sS'Indian diaspora in Europe'
p528
I663
sS'Attorneys General of India'
p529
I266
sS'People from Maheshtala'
p530
I2263
sS'Indo-Fijian diaspora'
p531
I1342
sS'Actors by city or town in India'
p532
I171
sS'Nawabs of Dhaka'
p533
I1575
sS'Indian educators by state'
p534
I701
sS'People from Ajmer'
p535
I1668
sS'People from Dhar district'
p536
I1916
sS'Telangana politician stubs'
p537
I2985
sS'Indian Shia Muslims'
p538
I1210
sS'Indian television people'
p539
I1261
sS'16th-century Indian scientists'
p540
I21
sS'Lok Sabha members from Mizoram'
p541
I1456
sS'People from Panipat district'
p542
I2410
sS'People from Arunachal Pradesh by district'
p543
I1713
sS'Activists from Punjab, India'
p544
I161
sS'Indian emigrants to Israel'
p545
I717
sS'Indian international schools in the United Arab Emirates'
p546
I875
sS'People from Mirzapur district'
p547
I2303
sS'Mughal Empire poets'
p548
I1549
sS'People from Jamnagar district'
p549
I2089
sS'People from Pauri Garhwal district'
p550
I2425
sS'Nigerian people of Indian descent'
p551
I1580
sS'Hindustani Awam Morcha politicians'
p552
I493
sS'People from Tiruvallur district'
p553
I2667
sS'People from Haryana'
p554
I2034
sS'Indian Hindus'
p555
I849
sS'Indian women by occupation by state'
p556
I1290
sS'15th-century Indian women'
p557
I14
sS'British India emigrants to the Ottoman Empire'
p558
I313
sS'Indian expatriates in the Philippines'
p559
I795
sS'Indian film choreographers'
p560
I817
sS'Indian expatriates in Finland'
p561
I768
sS'Kisan Mazdoor Praja Party politicians'
p562
I1406
sS'People from Anand district'
p563
I1696
sS'Nizams of Hyderabad'
p564
I1581
sS'Indian emigrants to Norway'
p565
I723
sS'People from East Khasi Hills district'
p566
I1947
sS'People from Tiruchirappalli district'
p567
I2661
sS'People from Avadi'
p568
I1726
sS'People from Arunachal Pradesh by occupation'
p569
I1714
sS'Party of Democratic Socialism (India) politicians'
p570
I1620
sS'Indian medical researchers'
p571
I952
sS'People from Kheda district'
p572
I2171
sS'Women in India'
p573
I3071
sS'Indian painters by century'
p574
I1026
sS'Assamese people'
p575
I260
sS'Chahamanas of Jalor'
p576
I337
sS'People from Ariyalur district'
p577
I1710
sS'Indian actors by medium'
p578
I520
sS'Malawian people of Indian descent'
p579
I1489
sS'Indian women television producers'
p580
I1326
sS'Women of the Kingdom of Mysore'
p581
I3076
sS'People from Durg'
p582
I1938
sS'Buildings and structures by Indian architects'
p583
I324
sS'People from Benaulim'
p584
I1783
sS'People from Raigarh district'
p585
I2461
sS'People from Budgam district'
p586
I1829
sS'Mewar dynasty'
p587
I1535
sS'People from East Garo Hills district'
p588
I1943
sS'People from Tiruvannamalai district'
p589
I2668
sS'Indian Hindu missionaries'
p590
I846
sS'Indian war casualties'
p591
I1278
sS'People from Hamirpur district, Himachal Pradesh'
p592
I2024
sS'People from Gandhinagar district'
p593
I1979
sS'People from Tehri'
p594
I2633
sS'People from Balrampur district, Chhattisgarh'
p595
I1741
sS'People from Lucknow district'
p596
I2243
sS'People from Janjgir-Champa district'
p597
I2093
sS'People from West Delhi district'
p598
I2734
sS'Films directed by Raj Kapoor'
p599
I451
sS'Vishva Hindu Parishad members'
p600
I3027
sS'People from Balod district'
p601
I1739
sS'Lok Janshakti Party politicians'
p602
I1455
sS'American female models of Indian descent'
p603
I213
sS'People from East Singhbhum district'
p604
I1950
sS'People from Fazilka district'
p605
I1968
sS'Sheriffs of Kolkata'
p606
I2919
sS'People from Bhind district'
p607
I1797
sS'Indian actors who committed suicide'
p608
I523
sS'People from Faridkot district'
p609
I1959
sS'Wadiyar dynasty'
p610
I3028
sS'Actors from Kozhikode'
p611
I174
sS'Indian National Congress politician stubs'
p612
I1002
sS'People from Kurung Kumey district'
p613
I2217
sS'Indian male comedians'
p614
I923
sS'Sports events founded by Sri Chinmoy'
p615
I2943
sS'People from Neemuch district'
p616
I2369
sS'Women from Punjab, India'
p617
I3062
sS'People from Vizianagaram district'
p618
I2724
sS'Sportspeople from Surat'
p619
I2951
sS'Activists from Puducherry'
p620
I160
sS'People from Pune district'
p621
I2448
sS'Swatantra Party politicians'
p622
I2973
sS'People from Meerut district'
p623
I2296
sS'Indian communists'
p624
I628
sS'Ajay Devgan'
p625
I194
sS'Indian people of Soviet descent'
p626
I1094
sS'Memorials to Swami Vivekananda'
p627
I1534
sS'Indian theatre directors'
p628
I1265
sS'Indian people of Armenian descent'
p629
I1052
sS'Artists from Kochi'
p630
I251
sS'21st-century Indian dancers'
p631
I99
sS'Women from Telangana'
p632
I3066
sS'People from Hapur'
p633
I2027
sS'Aam Aadmi Party politicians'
p634
I136
sS'Bene Israel'
p635
I284
sS'People from Howrah'
p636
I2051
sS'People from Singrauli district'
p637
I2574
sS'Indian anti-communists'
p638
I542
sS'People from Barmer, Rajasthan'
p639
I1765
sS'Arijit Singh songs'
p640
I247
sS'People from Khowai district'
p641
I2173
sS'People from Mahbubnagar district'
p642
I2260
sS'Telugu people'
p643
I2990
sS'Maternity in India'
p644
I1504
sS'Prisoners and detainees from Assam'
p645
I2801
sS'People from Karnataka by occupation'
p646
I2149
sS'Kabul Shahi'
p647
I1379
sS'Chandelas of Jejakabhukti'
p648
I342
sS'People from Reasi district'
p649
I2493
sS'Indian astrologers'
p650
I559
sS'People by city in Punjab, India'
p651
I1646
sS'Family of Mirza Ghulam Ahmad'
p652
I428
sS'People from Rajgarh district'
p653
I2470
sS'Lists of Indian people by occupation'
p654
I1431
sS'People from Majuli district'
p655
I2267
sS'Manmohan Singh'
p656
I1498
sS'People from Baramulla district'
p657
I1756
sS'Indian people by occupation'
p658
I1029
sS'Sportspeople from Vijayawada'
p659
I2954
sS'Indian illustrators'
p660
I856
sS'People from Darjeeling'
p661
I1890
sS'Political office-holders in India by state'
p662
I2781
sS'Romani comics characters'
p663
I2874
sS'Indian humanitarians'
p664
I855
sS'People from Dehradun'
p665
I1899
sS'People from Kabirdham district'
p666
I2114
sS'People from Malihabad'
p667
I2272
sS'Welfare Party of India politicians'
p668
I3029
sS'Indian political scientists'
p669
I1135
sS'People from Warangal district'
p670
I2726
sS'Srinivasa Ramanujan'
p671
I2961
sS'People from Bilaspur district, Himachal Pradesh'
p672
I1819
sS'Fictional British people of Indian descent'
p673
I436
sS'Indian writers by state'
p674
I1335
sS'People from Kota, Rajasthan'
p675
I2201
sS'Indian emigrants to Mexico'
p676
I720
sS'Recipients of the Kalaimamani Award'
p677
I2846
sS'People from Mahisagar district'
p678
I2264
sS'Rajkot municipal councillors'
p679
I2823
sS'Jammu and Kashmir Peoples Democratic Party politicians'
p680
I1356
sS'Lists of people of Indian descent'
p681
I1447
sS'Goa academics'
p682
I470
sS'Indian Civil Service (British India) officers'
p683
I620
sS'People from Dewas'
p684
I1908
sS'People from Tirupur'
p685
I2665
sS'Indian muftis'
p686
I980
sS'Kannada organizations in North America'
p687
I1387
sS'Activists from Uttarakhand'
p688
I167
sS'Indian earth scientists'
p689
I696
sS'Indian women architects'
p690
I1285
sS'Recipients of the Rajiv Gandhi Khel Ratna'
p691
I2858
sS'People from Lakshadweep by district'
p692
I2226
sS'Indian Deputy Prime Ministers'
p693
I647
sS'Indian logicians'
p694
I913
sS'Mughal nobility'
p695
I1551
sS'Paralympic athletes of India'
p696
I1609
sS'People from Jalaun district'
p697
I2075
sS'People from Peren district'
p698
I2427
sS'Recipients of the Pravasi Bharatiya Community Service Award'
p699
I2856
sS'Indian nurses'
p700
I1016
sS'17th-century Indian educators'
p701
I25
sS'Indian archaeologists'
p702
I543
sS'People from Bongaigaon district'
p703
I1824
sS'2nd-century BC Indian people'
p704
I119
sS'Indian football biography stubs'
p705
I831
sS'Indian film score composers'
p706
I824
sS'Indian sportspeople by century'
p707
I1234
sS'21st-century Indian monks'
p708
I106
sS'English-language Indian films'
p709
I420
sS'People from Barasat'
p710
I1758
sS'Marumalarchi Dravida Munnetra Kazhagam politicians'
p711
I1502
sS'Jayalalithaa'
p712
I1365
sS'Maharajas of Bundi'
p713
I1467
sS'People from Jind district'
p714
I2108
sS'Pratibha Patil'
p715
I2795
sS'Indian women judges'
p716
I1306
sS'People from Kerala'
p717
I2161
sS'Punjabi diaspora'
p718
I2808
sS'Indian emigrants to the United States'
p719
I737
sS'Recipients of the Saraswati Samman Award'
p720
I2859
sS'20th-century Indian architects'
p721
I72
sS'Indian diaspora history'
p722
I655
sS'Women from Arunachal Pradesh'
p723
I3040
sS'Indian people of Yugoslav descent'
p724
I1108
sS'Kazi Nazrul Islam'
p725
I1395
sS'Mughal Empire Sufis'
p726
I1550
sS'Indian people of European descent'
p727
I1068
sS'People from Nadiad'
p728
I2335
sS'People from Kurnool district'
p729
I2215
sS'People from Champhai district'
p730
I1842
sS'Indian musicologists'
p731
I992
sS'People from Central Delhi district'
p732
I1836
sS'Indian jurists'
p733
I900
sS'People from South West Khasi Hills district'
p734
I2604
sS'Tulu people'
p735
I3003
sS'Indian politicians disqualified'
p736
I1146
sS'Indian diaspora in fiction'
p737
I664
sS'Indian diaspora in Suriname'
p738
I683
sS'People from Nalgonda'
p739
I2350
sS'Desi films'
p740
I395
sS'People from Mysore district'
p741
I2333
sS'People from Satna district'
p742
I2530
sS'People from Dhanbad'
p743
I1912
sS'Meher Baba templates'
p744
I1527
sS'Serbian people of Indian descent'
p745
I2910
sS'People from Delhi by district'
p746
I1902
sS'Indian costume designers'
p747
I635
sS'People from Nagpur'
p748
I2344
sS'Indian diaspora in Africa'
p749
I657
sS'Indian women designers'
p750
I1294
sS'People from Junagadh'
p751
I2112
sS'People from Lohit district'
p752
I2236
sS'People from Morbi district'
p753
I2315
sS'People from Rewari district'
p754
I2497
sS'Indian literary historians'
p755
I912
sS'People from Solapur'
p756
I2587
sS'Danish people of Indian descent'
p757
I391
sS'Puerto Rican people of Indian descent'
p758
I2805
sS'People from Palwal district'
p759
I2403
sS'People from Moga district'
p760
I2308
sS'Indian science fellowships'
p761
I1196
sS'People from Baranagar'
p762
I1757
sS'Indian expatriates in Mexico'
p763
I780
sS'Narendra Modi'
p764
I1567
sS'Artists from Kozhikode'
p765
I252
sS'Indian emigrants to Belgium'
p766
I706
sS'Indian women engineers'
p767
I1298
sS'Women from Tamil Nadu'
p768
I3065
sS'Indian adoptees'
p769
I526
sS'People from Shivpuri district'
p770
I2557
sS'Politicians from Jaipur'
p771
I2783
sS'People from Tiruvarur district'
p772
I2669
sS'People from Rampur, Uttar Pradesh'
p773
I2484
sS'Indian people of Pakistani descent'
p774
I1084
sS'Indian philosophers by century'
p775
I1118
sS'Indian diaspora in Singapore'
p776
I680
sS'People from Saharanpur district'
p777
I2510
sS'People from Arrah'
p778
I1711
sS'20th-century Indian educators'
p779
I76
sS'People from Karimnagar'
p780
I2143
sS'People from Moradabad'
p781
I2313
sS'People from Pudukkottai district'
p782
I2445
sS'Indian emigrants to Qatar'
p783
I726
sS'Indian royalty by century'
p784
I1183
sS'Durrani dynasty'
p785
I407
sS'Kerala politician stubs'
p786
I1399
sS'People from Akola'
p787
I1671
sS'Telangana Rashtra Samithi politicians'
p788
I2986
sS'Blind people from India'
p789
I300
sS'Indian award winners'
p790
I569
sS'People from Junagadh district'
p791
I2113
sS'People from Nagaur district'
p792
I2342
sS'Indian sailors (sport)'
p793
I1186
sS'Indian people of German descent'
p794
I1070
sS'Uttar Pradesh politician stubs'
p795
I3015
sS'Dalit writers'
p796
I388
sS'People from Unnao district'
p797
I2692
sS'Indian politicians by state'
p798
I1144
sS'People from Churachandpur district'
p799
I1868
sS'People from Ahmedabad district'
p800
I1663
sS'People from Cuddalore district'
p801
I1873
sS'People from Sukma district'
p802
I2613
sS'Adi Shankara'
p803
I177
sS'Indian electrical engineers'
p804
I702
sS"Women's education in India"
p805
I3082
sS'Indian gamblers'
p806
I839
sS'Indian social workers'
p807
I1221
sS'Little Indias'
p808
I1450
sS'People from Rewa, Madhya Pradesh'
p809
I2495
sS'Writers of Indian descent'
p810
I3098
sS'Jharkhand Mukti Morcha politicians'
p811
I1369
sS'Indian expatriates in Bahrain'
p812
I762
sS'People from Arwal district'
p813
I1715
sS'9th-century Indian people'
p814
I135
sS'Fatehpur Sikri'
p815
I430
sS'People by city in Rajasthan'
p816
I1647
sS'Madhya Pradesh academics'
p817
I1460
sS'Indian cricket biography stubs'
p818
I637
sS'Faculty by university in India'
p819
I427
sS'Chandra kings'
p820
I344
sS'People from Hooghly district'
p821
I2047
sS'21st-century Indian people'
p822
I109
sS'Indian meteorologists'
p823
I959
sS'Secretaries General of the Lok Sabha'
p824
I2907
sS'People from Krishna district'
p825
I2207
sS'People from Chhindwara district'
p826
I1859
sS'Indian people by political orientation'
p827
I1034
sS'Women by state in India'
p828
I3038
sS'People from Udupi district'
p829
I2684
sS'People from Kamrup Metropolitan district'
p830
I2124
sS'People from Panaji'
p831
I2404
sS'Recipients of the Padma Vibhushan in trade &amp; industry'
p832
I2855
sS'People from Begusarai'
p833
I1776
sS'Indian theatre managers and producers'
p834
I1266
sS'People from Gujarat by occupation'
p835
I2009
sS'People from Sikkim by district'
p836
I2568
sS'Indian recipients of British titles'
p837
I1172
sS'Kochi municipal councillors'
p838
I1407
sS'Artists by city or town in India'
p839
I249
sS'People from Sant Kabir Nagar district'
p840
I2525
sS'Indian expatriates in Pakistan'
p841
I786
sS'Chief Election Commissioners of India'
p842
I350
sS'Indian women comedians'
p843
I1293
sS'Indian sports officials'
p844
I1232
sS'People from West Siang district'
p845
I2741
sS'People from Vadodara'
p846
I2706
sS'People from Sagar, Madhya Pradesh'
p847
I2508
sS'People from Ramanagara district'
p848
I2479
sS'Legislators in India'
p849
I1423
sS'People from Malappuram'
p850
I2268
sS'Women from Jammu and Kashmir'
p851
I3050
sS'Indian medical administrators'
p852
I949
sS'Monuments and memorials to Shivaji'
p853
I1545
sS'Indian women academics'
p854
I1283
sS'Recipients of Indian civil awards and decorations'
p855
I2837
sS'People from Medak district'
p856
I2294
sS'Maharashtra academics'
p857
I1482
sS'People from Dhubri district'
p858
I1923
sS'People from Siddharthnagar district'
p859
I2562
sS'Activists from Karnataka'
p860
I152
sS'Indian emigrants to Hong Kong'
p861
I714
sS'Indian mathematicians by century'
p862
I945
sS'Indian Nobel laureates'
p863
I1010
sS'People from Thoothukudi district'
p864
I2652
sS'Indian art critics'
p865
I549
sS'B. R. Ambedkar'
p866
I311
sS'People from Mahasamund district'
p867
I2259
sS'Janata Dal politicians'
p868
I1357
sS'Women of the Maurya Empire'
p869
I3079
sS'Norwegian people of Indian descent'
p870
I1583
sS'Indian expatriate sportspeople'
p871
I800
sS'Palak Muchhal'
p872
I1602
sS'People from North Garo Hills district'
p873
I2382
sS'People from Shahdol'
p874
I2541
sS'Women from Delhi'
p875
I3045
sS'Bhoja'
p876
I294
sS'Pakistani revolutionaries'
p877
I1598
sS'People by city in Himachal Pradesh'
p878
I1633
sS'Women from Uttarakhand'
p879
I3068
sS'Indian people of World War I'
p880
I1105
sS'Dr. B. C. Roy Award winners'
p881
I406
sS'People from Datia district'
p882
I1894
sS'Indian politicians convicted of crimes'
p883
I1145
sS'Filipino people of Indian descent'
p884
I446
sS'People from Sheohar district'
p885
I2550
sS'People from Latehar district'
p886
I2230
sS'People from Bilaspur, Chhattisgarh'
p887
I1817
sS'Mayors of Cuttack'
p888
I1508
sS'People from Nagapattinam district'
p889
I2341
sS'Samta Party politicians'
p890
I2886
sS'People from Purnia district'
p891
I2455
sS'People from Bargarh district'
p892
I1763
sS'Gujarati people'
p893
I479
sS'Reliance Industries people'
p894
I2861
sS'Women from Rajasthan'
p895
I3063
sS'Opposition leaders in India'
p896
I1592
sS'Films about women in the Indian diaspora'
p897
I449
sS'People from Dhamtari district'
p898
I1911
sS'Indian journalists by language'
p899
I896
sS'Lists of Sahitya Akademi Award winners'
p900
I1449
sS'Russian people of Indian descent'
p901
I2879
sS'Businesspeople by city in India'
p902
I329
sS'12th-century Indian women'
p903
I5
sS'Indian Education Service officers'
p904
I698
sS'Dalit people'
p905
I386
sS'Indian space scientists'
p906
I1225
sS'21st-century Indian people by occupation'
p907
I110
sS'Women from Karnataka'
p908
I3052
sS'Indian people of Dutch descent'
p909
I1066
sS'Indian singer stubs'
p910
I1215
sS'People from Udham Singh Nagar district'
p911
I2683
sS'Indian businesspeople by industry'
p912
I587
sS'Finnish people of Indian descent'
p913
I453
sS'Indian children'
p914
I602
sS'Australian people of Indian descent'
p915
I268
sS'People from Fatehabad district'
p916
I1963
sS'Sangama dynasty'
p917
I2888
sS'People from Kolkata district'
p918
I2191
sS'British India judges'
p919
I314
sS'Indian jewelry designers'
p920
I892
sS'Indian amateur radio operators'
p921
I536
sS'People from Datia'
p922
I1893
sS'Marxist Forward Bloc politicians'
p923
I1503
sS'People from Dhanbad district'
p924
I1913
sS'Indian diaspora in Mauritius'
p925
I673
sS'People from Kangra, Himachal Pradesh'
p926
I2128
sS'Indian socialists'
p927
I1218
sS'Fijian people of Indian descent'
p928
I443
sS'People from Rayalaseema'
p929
I2492
sS'Indian arts administrators'
p930
I558
sS'Indian expatriates in Norway'
p931
I785
sS'People from Farrukhabad'
p932
I1961
sS'Indian expatriates in Brazil'
p933
I764
sS'Indian make-up artists'
p934
I918
sS'People from Porbandar district'
p935
I2434
sS'Seychellois people of Indian descent'
p936
I2913
sS'Solanki dynasty'
p937
I2935
sS'Indian business biography stubs'
p938
I583
sS'Nagaland academics'
p939
I1563
sS'Indian firefighters'
p940
I827
sS'People from Thoubal district'
p941
I2653
sS'Indian people in health professions'
p942
I1045
sS'People from Alwar'
p943
I1683
sS'Sheriffs of Mumbai'
p944
I2920
sS'Indian expatriates in Saudi Arabia'
p945
I789
sS'Pallava kings'
p946
I1604
sS'19th-century Indian philosophers'
p947
I62
sS'Indian Esperantists'
p948
I752
sS'Rajya Sabha members from Mizoram'
p949
I2825
sS'People from Kanker district'
p950
I2129
sS'Indian royalty stubs'
p951
I1184
sS'Dravida Munnetra Kazhagam politicians'
p952
I404
sS'Himachal Pradesh academics'
p953
I487
sS'Indian Zoroastrians'
p954
I1339
sS'People from Indore'
p955
I2062
sS'People from Ernakulam district'
p956
I1951
sS'18th-century Indian musicians'
p957
I38
sS'Indian military physicians'
p958
I972
sS'People from Doda district'
p959
I1934
sS'Tipu Sultan'
p960
I2996
sS'People from Nalbari'
p961
I2348
sS"Bihar People's Party politicians"
p962
I297
sS'Recipients of the Kala Ratna'
p963
I2847
sS'People from Harda'
p964
I2029
sS'People from Dungarpur'
p965
I1936
sS'Gujarat academics'
p966
I477
sS'People from Lower Subansiri district'
p967
I2241
sS'People from Margao'
p968
I2287
sS'Indian diaspora in Asia'
p969
I658
sS'People from Bandipora district'
p970
I1744
sS'Dynasties of Odisha'
p971
I411
sS'People from Narayanpur district'
p972
I2358
sS'People from Rohtak district'
p973
I2501
sS'People from Mumbai'
p974
I2321
sS'Guatama Buddha family'
p975
I476
sS'People from Chhatarpur district'
p976
I1855
sS'Dynasties of India'
p977
I410
sS'American women journalists of Indian descent'
p978
I222
sS'Kerala school'
p979
I1400
sS'Indian theologians'
p980
I1268
sS'Praja Party politicians'
p981
I2792
sS'People from Chandauli district'
p982
I1843
sS'State political office-holders in India'
p983
I2962
sS'Priyanka Chopra'
p984
I2803
sS'People from Seoni, Madhya Pradesh'
p985
I2537
sS'R\xc3\xa9unionnais people of Indian descent'
p986
I2865
sS'People from Uttarakhand'
p987
I2696
sS'Delhi academics'
p988
I393
sS'Indian bioengineers'
p989
I574
sS'People from Thane district'
p990
I2641
sS'Janata Dal (Secular) politicians'
p991
I1358
sS'All India Muslim League members'
p992
I202
sS'People from Nandyal'
p993
I2357
sS'Indian Space Research Organisation people'
p994
I1224
sS'Works by Swami Vivekananda'
p995
I3095
sS'Ghanaian people of Indian descent'
p996
I466
sS'People from Alwar district'
p997
I1684
sS'People from Coimbatore district'
p998
I1871
sS'Indian military personnel stubs'
p999
I971
sS'Kidnapped Indian people'
p1000
I1404
sS'People from Uttarpara'
p1001
I2702
sS'Activists from Meghalaya'
p1002
I157
sS'Mizo National Front politicians'
p1003
I1540
sS'Indian female prostitutes'
p1004
I808
sS'Indian people of Emirati descent'
p1005
I1067
sS'Indian Jain musicians'
p1006
I884
sS'Kerala diaspora'
p1007
I1398
sS'Iraqi people of Indian descent'
p1008
I1347
sS'Activists from Assam'
p1009
I141
sS'Judges of the Supreme Court of India'
p1010
I1376
sS'Indian television producers'
p1011
I1262
sS'People from Udaipur'
p1012
I2679
sS'Indian classical liberals'
p1013
I621
sS'Parsi writers'
p1014
I1618
sS'People from Haveri district'
p1015
I2039
sS'Politicians from Mysore'
p1016
I2786
sS'Indian military personnel by period'
p1017
I964
sS'Activists from Jharkhand'
p1018
I151
sS'People from Bellary district'
p1019
I1781
sS'Mughal dynasty'
p1020
I1547
sS'People from Jabalpur district'
p1021
I2066
sS'People from Jhabua district'
p1022
I2098
sS'Indian expatriates in Fiji'
p1023
I767
sS'Indian monks'
p1024
I978
sS'Indian women by occupation and century'
p1025
I1289
sS'Indian military personnel by war'
p1026
I967
sS'People from Faridabad'
p1027
I1957
sS'People murdered in India'
p1028
I2752
sS'Communist Party of India (Marxist) politician stubs'
p1029
I370
sS'People from Bihar'
p1030
I1806
sS'Songs written by Priyanka Chopra'
p1031
I2937
sS'Maharajas of Jaipur'
p1032
I1471
sS'People from Panchmahal district'
p1033
I2406
sS'Nepalese people of Indian descent'
p1034
I1577
sS'People from Rourkela'
p1035
I2503
sS'People from Rajouri district'
p1036
I2475
sS'16th-century Indian writers'
p1037
I23
sS'People from Buxar district'
p1038
I1834
sS'Sri Chinmoy'
p1039
I2959
sS'People from Sonipat'
p1040
I2590
sS'Recipients of the Padma Vibhushan in arts'
p1041
I2853
sS'People from Bundi district'
p1042
I1832
sS'Indian expatriates in New Zealand'
p1043
I783
sS'Kashmiri diaspora'
p1044
I1393
sS'People from Pratapgarh district, Uttar Pradesh'
p1045
I2439
sS'Indian people who died in prison custody'
p1046
I1112
sS'People from Verna, Goa'
p1047
I2714
sS'People from Sitapur district'
p1048
I2581
sS'People of Anglo-Indian descent'
p1049
I2753
sS'20th-century Indian painters'
p1050
I85
sS'Swami Vivekananda'
p1051
I2972
sS'Indian diaspora in Pakistan'
p1052
I679
sS'Indian women trade unionists'
p1053
I1327
sS'Indian male choreographers'
p1054
I922
sS'People from Hyderabad, India'
p1055
I2055
sS'Activists from Tamil Nadu'
p1056
I164
sS'Sai Baba of Shirdi'
p1057
I2881
sS'Judges of the Mumbai High Court'
p1058
I1375
sS'Saint Thomas Christians'
p1059
I2882
sS'Independent politicians in India'
p1060
I509
sS'Indian Marxists'
p1061
I941
sS'Characters created by Satyajit Ray'
p1062
I345
sS'Indian women by century'
p1063
I1287
sS"Indian children's films"
p1064
I603
sS'Indian terrorism victims'
p1065
I1263
sS'Indian political theorists'
p1066
I1137
sS'Adil Shahi dynasty'
p1067
I176
sS'19th-century Indian scientists'
p1068
I65
sS'Indian immunologists'
p1069
I858
sS'Women from Kerala'
p1070
I3053
sS'Supreme Court of India lawyers'
p1071
I2966
sS'Sportspeople from Mysore'
p1072
I2949
sS'Fictional Indian people in literature'
p1073
I440
sS'18th-century Indian people'
p1074
I40
sS'Indian emigrants to the United Kingdom'
p1075
I736
sS'Indian women activists'
p1076
I1284
sS'21st-century Indian women'
p1077
I117
sS'Jawaharlal Nehru'
p1078
I1363
sS'Indian business executives'
p1079
I584
sS'Pandyan kings'
p1080
I1606
sS'Political positions of Indian politicians'
p1081
I2782
sS'Indian emigrants to the Soviet Union'
p1082
I734
sS'Indian Jews'
p1083
I893
sS'People from Deoria district'
p1084
I1905
sS'National Film Awards (India)'
p1085
I1568
sS'People from Wayanad district'
p1086
I2729
sS'Revolutionaries from Varanasi'
p1087
I2866
sS'Tamil Nadu politician stubs'
p1088
I2979
sS'People from Gumla district'
p1089
I2012
sS'Indian male artists'
p1090
I920
sS'People from South Delhi district'
p1091
I2596
sS'19th-century Indian actors'
p1092
I47
sS'Indian politicians by party'
p1093
I1142
sS'Indian competitors by sports event'
p1094
I630
sS'Indian former Hindus'
p1095
I836
sS'Indian musicians by state'
p1096
I990
sS'People from Shamli district'
p1097
I2548
sS'People from Bijapur district, Chhattisgarh'
p1098
I1810
sS'Indian psychologists'
p1099
I1160
sS'Activists from Kerala'
p1100
I153
sS'Indian Police Service officers'
p1101
I1130
sS'Indian food scientists'
p1102
I830
sS'Lists of ambassadors of India'
p1103
I1426
sS'Naturalists of British India'
p1104
I1573
sS'Indian Quranist Muslims'
p1105
I1164
sS'People from Gorakhpur district'
p1106
I2006
sS'20th-century Indian journalists'
p1107
I78
sS'Sankethi people'
p1108
I2890
sS'Children of Prime Ministers of India'
p1109
I357
sS'Portuguese people of Indian descent'
p1110
I2790
sS'Karnataka Janata Paksha politicians'
p1111
I1390
sS'Indian women philanthropists'
p1112
I1311
sS'Indian archivists'
p1113
I546
sS'Mauryan dynasty'
p1114
I1506
sS'Qatari people of Indian descent'
p1115
I2811
sS'People from Shajapur'
p1116
I2546
sS'Leaders of political parties in India'
p1117
I1418
sS'Indian Shia clerics'
p1118
I1209
sS'People from West Garo Hills district'
p1119
I2736
sS'Indian medical doctors'
p1120
I951
sS'People from Cooch Behar district'
p1121
I1872
sS'19th-century Indian educators'
p1122
I52
sS'People from Debagarh district'
p1123
I1898
sS'Timurid dynasty'
p1124
I2995
sS'People of Indian Tamil descent'
p1125
I2761
sS'People from Chhattisgarh by occupation'
p1126
I1858
sS'Contemporary Indian philosophers'
p1127
I375
sS'Indian women'
p1128
I1282
sS'Indian surrealist writers'
p1129
I1252
sS'People from Balasore district'
p1130
I1736
sS'Indian women journalists'
p1131
I1305
sS'16th-century Indian painters'
p1132
I16
sS'2nd-century Indian people'
p1133
I120
sS'Indian international schools in Japan'
p1134
I869
sS'Indian diaspora in the Netherlands'
p1135
I686
sS'Indian theoretical physicists'
p1136
I1269
sS'Bahujan Samaj Party politicians'
p1137
I273
sS'People from Gwalior'
p1138
I2021
sS'People from Ramagundam'
p1139
I2478
sS'Sheriffs of India'
p1140
I2918
sS'People from Saiha district'
p1141
I2513
sS'People from Ambala district'
p1142
I1685
sS'Indian scholars'
p1143
I1191
sS'Sassoon family'
p1144
I2892
sS'People from Suryapet'
p1145
I2623
sS'People from Mandla district'
p1146
I2276
sS'Indian Oriental Orthodox Christians'
p1147
I1022
sS'Indian sportswriters'
p1148
I1241
sS'People from Sivasagar district'
p1149
I2584
sS'Indian people convicted of murder'
p1150
I1040
sS'Indian National Congress (Organisation) politicians'
p1151
I1000
sS'Hemendra Kumar Roy'
p1152
I486
sS'Wikipedia categories named after Indian politicians'
p1153
I3036
sS'Compositions by Ilaiyaraaja'
p1154
I374
sS'People from South 24 Parganas district'
p1155
I2594
sS'Indian theatre people'
p1156
I1267
sS'People from Almora district'
p1157
I1682
sS'Indian people of Vietnamese descent'
p1158
I1104
sS'Indian people of North American descent'
p1159
I1083
sS'People from Vellore district'
p1160
I2713
sS'People from Tamenglong district'
p1161
I2625
sS'Indian materials scientists'
p1162
I943
sS'People from Ozhukarai'
p1163
I2393
sS'Samyukta Socialist Party politicians'
p1164
I2887
sS'36 royal races'
p1165
I121
sS'People from Jalgaon'
p1166
I2076
sS'People from Haridwar'
p1167
I2032
sS'Ancient Indian philosophers'
p1168
I232
sS'People from Uttarakhand by occupation'
p1169
I2698
sS'Indian Islamists'
p1170
I881
sS'Executed Indian people'
p1171
I422
sS'People from Etah district'
p1172
I1953
sS'University of Rajasthan faculty'
p1173
I3012
sS'People from Durgapur, West Bengal'
p1174
I1939
sS'18th-century Indian politicians'
p1175
I42
sS'Indian diaspora in South America'
p1176
I682
sS'21st-century Indian photographers'
p1177
I112
sS'13th-century Indian people'
p1178
I6
sS'Indian Africanists'
p1179
I529
sS'Indian people of Polish descent'
p1180
I1086
sS'People from Chitrakoot district'
p1181
I1865
sS'People from Assam by occupation'
p1182
I1721
sS'Jewish Indian sportspeople'
p1183
I1368
sS'People from Leh district'
p1184
I2234
sS'Athletes from Varanasi'
p1185
I265
sS'People from Latur district'
p1186
I2232
sS'People from Nellore district'
p1187
I2371
sS'Indian activist journalists'
p1188
I514
sS'People from Banswara district'
p1189
I1752
sS'People from Sindhudurg district'
p1190
I2573
sS'Indian diaspora in Australia'
p1191
I659
sS'Meher Baba'
p1192
I1526
sS'People from Garhwa district'
p1193
I1982
sS'People from Hardoi district'
p1194
I2031
sS'People from Ganjam district'
p1195
I1981
sS'People from Amravati district'
p1196
I1691
sS'Indian military personnel of World War I'
p1197
I969
sS'Madurai Nayak dynasty'
p1198
I1462
sS'British Indian history'
p1199
I316
sS'Indian Christian missionaries'
p1200
I608
sS'People from Narmada district'
p1201
I2359
sS'People from Bardhaman district'
p1202
I1760
sS'People from Samba district'
p1203
I2517
sS'Indian actresses'
p1204
I524
sS'People from Port Blair'
p1205
I2435
sS'Journalists of Indian descent'
p1206
I1373
sS'People from Tirunelveli district'
p1207
I2663
sS'Works by Jhumpa Lahiri'
p1208
I3090
sS'Indian lawyers'
p1209
I904
sS'People from Kochi'
p1210
I2179
sS'People from Burhanpur district'
p1211
I1833
sS'People from Pondicherry'
p1212
I2432
sS'People from Dadra and Nagar Haveli district'
p1213
I1878
sS'People from Jaipur district'
p1214
I2069
sS'Indian newspaper people'
p1215
I1009
sS'People from Dharwad district'
p1216
I1919
sS'Ambassadors of England to the Mughal Empire'
p1217
I208
sS'People from South Tripura'
p1218
I2600
sS'People from Bagalkot district'
p1219
I1728
sS'People from Fatehgarh Sahib district'
p1220
I1966
sS'Ancient Indian monarchs'
p1221
I229
sS'People from Chandigarh by occupation'
p1222
I1846
sS'People from Kinnaur district'
p1223
I2175
sS'People from Longding district'
p1224
I2237
sS'Indian models'
p1225
I976
sS'Tamil Maanila Congress politicians'
p1226
I2977
sS'People from Dhar'
p1227
I1914
sS'People from Uttar Pradesh by district'
p1228
I2704
sS'Brahmin dynasties'
p1229
I307
sS'People from Navi Mumbai'
p1230
I2364
sS'People from Bareilly district'
p1231
I1762
sS'Ancient Indian people by occupation'
p1232
I231
sS'20th-century Indian businesspeople'
p1233
I74
sS'People from Bihar by occupation'
p1234
I1808
sS'People from Bhagalpur district'
p1235
I1787
sS'5th-century Indian people'
p1236
I127
sS'Indian legal scholars'
p1237
I906
sS'People from Rajnandgaon district'
p1238
I2474
sS'American actresses of Indian descent'
p1239
I210
sS'Indian Rhodes Scholars'
p1240
I1180
sS'People from Faizabad district'
p1241
I1956
sS'People from Bidar district'
p1242
I1805
sS'Indian dance groups'
p1243
I641
sS'People from Satna'
p1244
I2529
sS'East India Company civil servants'
p1245
I415
sS'Greek people of Indian descent'
p1246
I474
sS'Indian Institute of Technology Delhi people'
p1247
I864
sS'Meghalaya politician stubs'
p1248
I1525
sS'Defence Secretaries of India'
p1249
I392
sS'Indian librarians'
p1250
I909
sS'People from Subarnapur district'
p1251
I2612
sS'American women artists of Indian descent'
p1252
I221
sS'People from Lahaul and Spiti district'
p1253
I2221
sS'15th-century Indian philosophers'
p1254
I13
sS'People from Sikkim'
p1255
I2567
sS'People from West Champaran district'
p1256
I2733
sS'Gujarat Parivartan Party politicians'
p1257
I480
sS'Indian nationalists'
p1258
I1004
sS'Middle Eastern people of Indian descent'
p1259
I1537
sS'People by city in Andhra Pradesh'
p1260
I1625
sS'Women from Meghalaya'
p1261
I3057
sS'People from Allahabad district'
p1262
I1681
sS'People from Harda district'
p1263
I2030
sS'People from Ghaziabad'
p1264
I1987
sS'People from Tapi district'
p1265
I2629
sS'Solomon Islands people of Indian descent'
p1266
I2936
sS'Indian television actor stubs'
p1267
I1257
sS'Artists from Thiruvananthapuram'
p1268
I254
sS'Members of the Council of India'
p1269
I1531
sS'People from Haryana by district'
p1270
I2035
sS'Indian child actors'
p1271
I599
sS'People of Indo-Fijian descent'
p1272
I2762
sS'Indian defectors'
p1273
I645
sS'Indian artist stubs'
p1274
I557
sS'Indian jewellers'
p1275
I891
sS'Panthic Party politicians'
p1276
I1608
sS'Mayors of Surat'
p1277
I1517
sS"Indian women's rights activists"
p1278
I1321
sS'People from Madurai district'
p1279
I2254
sS'Expatriates in India'
p1280
I425
sS'Akhil Bharatiya Gorkha League politicians'
p1281
I196
sS'People from Andhra Pradesh'
p1282
I1701
sS'People from Bhadrak district'
p1283
I1785
sS'Indian legendary characters'
p1284
I907
sS'People from Kondagaon district'
p1285
I2194
sS'Sudanese people of Indian descent'
p1286
I2964
sS'People from Katni'
p1287
I2156
sS'Indian folk-song collectors'
p1288
I829
sS'Indian emigrants to Pakistan'
p1289
I725
sS'Indian torture victims'
p1290
I1272
sS'People from Rajasthan by district'
p1291
I2468
sS'People from Guwahati'
p1292
I2020
sS'Lok Sewak Sangh politicians'
p1293
I1458
sS'People from East Siang district'
p1294
I1948
sS'Indian people of Danish descent'
p1295
I1065
sS'18th-century Indian people by occupation'
p1296
I41
sS'Indian emigrants to Zimbabwe'
p1297
I740
sS'People from Kurnool'
p1298
I2214
sS'People from Darbhanga'
p1299
I1888
sS'People from Jajpur district'
p1300
I2072
sS'People from Koraput district'
p1301
I2196
sS'Indian Christian theologians'
p1302
I615
sS'19th-century Indian journalists'
p1303
I54
sS'People from Ukhrul district'
p1304
I2687
sS'People from Varanasi district'
p1305
I2711
sS'Indian activists'
p1306
I515
sS'Indian atheists'
p1307
I563
sS'Punjab, India academics'
p1308
I2809
sS'People from Alappuzha district'
p1309
I1674
sS'Indian politician stubs'
p1310
I1147
sS'People from Jalna'
p1311
I2078
sS'Indian expatriates in Germany'
p1312
I770
sS'People from Mainpuri district'
p1313
I2266
sS'University of Pune faculty'
p1314
I3011
sS'Peshwa dynasty'
p1315
I2777
sS'Rulers of Cochin'
p1316
I2877
sS'Fiji Hindi'
p1317
I444
sS'Indian historians by century'
p1318
I851
sS'People from Hazaribagh district'
p1319
I2040
sS'People from Tenali'
p1320
I2638
sS'People by city in Karnataka'
p1321
I1637
sS'Indian exiles'
p1322
I754
sS'1st-century Indian people'
p1323
I70
sS'Indian people of Saudi Arabian descent'
p1324
I1089
sS'Brahmin history'
p1325
I308
sS'People from Raipur, Chhattisgarh'
p1326
I2462
sS'People from Dumka district'
p1327
I1935
sS'Founders of Indian schools and colleges'
p1328
I457
sS'People from Meghalaya by occupation'
p1329
I2299
sS'Indian emigrants to South Africa'
p1330
I729
sS'Indian politicians'
p1331
I1138
sS'People from Shimla district'
p1332
I2554
sS'People from Namakkal district'
p1333
I2352
sS'People from Chamba district'
p1334
I1838
sS'Indian engineers'
p1335
I744
sS'Indian Political Service officers'
p1336
I1136
sS'Indian military personnel by branch'
p1337
I963
sS'Sri Aurobindo'
p1338
I2958
sS'Indian scientists by century'
p1339
I1199
sS'People from Guna, India'
p1340
I2014
sS'People from Bhilwara'
p1341
I1795
sS'Lists of Indian female political office-holders'
p1342
I1428
sS'Media of Indian diaspora'
p1343
I1520
sS'10th-century Indian women'
p1344
I1
sS'People from Assam by district'
p1345
I1720
sS'People from Alirajpur district'
p1346
I1679
sS'Recipients of the Infosys Prize'
p1347
I2844
sS'Maharajas of Gujarat'
p1348
I1468
sS'Films about women in India'
p1349
I448
sS'People from Angul district'
p1350
I1704
sS'Sanskrit Scholars from India'
p1351
I2891
sS'People from Bareilly'
p1352
I1761
sS'Indian Medical Service officers'
p1353
I953
sS'People from Seraikela Kharsawan district'
p1354
I2538
sS'11th-century Indian people'
p1355
I2
sS'Executed Indian women'
p1356
I423
sS'Indian Christian pacifists'
p1357
I610
sS'Indian diaspora by country'
p1358
I652
sS'People from Kulti'
p1359
I2212
sS'Films directed by Kamal Haasan'
p1360
I450
sS'People by city in Gujarat'
p1361
I1631
sS'Praja Rajyam Party politicians'
p1362
I2793
sS'Maharajas of Porbandar'
p1363
I1476
sS'People from Dholpur district'
p1364
I1922
sS'People from Jharkhand by occupation'
p1365
I2105
sS'Indian Foreign Service officers'
p1366
I834
sS'People associated with the British East India Company'
p1367
I1624
sS'Indian agriculturalists'
p1368
I532
sS'People from Beed district'
p1369
I1775
sS'People from Jhansi'
p1370
I2101
sS'People from Arunachal Pradesh'
p1371
I1712
sS'Ahmed Raza Khan Barelvi'
p1372
I192
sS'Indian philanthropists'
p1373
I1115
sS'Business families of India'
p1374
I328
sS'Works by Meher Baba'
p1375
I3091
sS'Fictional Indian people in video games'
p1376
I441
sS'People from Bastar district'
p1377
I1771
sS'Women from Madhya Pradesh'
p1378
I3054
sS'People from Maharajganj district'
p1379
I2255
sS'Guyanese people of Indian descent'
p1380
I482
sS'People from Dantewada district'
p1381
I1887
sS'People from Chandrapur'
p1382
I1847
sS'Indian biographers'
p1383
I575
sS'Sikkim Democratic Front politicians'
p1384
I2930
sS'Pakistani people of Haryanvi descent'
p1385
I1595
sS'People from Madhubani, India'
p1386
I2249
sS'21st-century Indian scientists'
p1387
I114
sS'People from Bhavnagar district'
p1388
I1793
sS'Indian expatriates in the Netherlands'
p1389
I794
sS'People from Ratnagiri district'
p1390
I2490
sS'People from Ongole'
p1391
I2391
sS'People from Udhampur district'
p1392
I2682
sS'Indian business theorists'
p1393
I589
sS'7th-century Indian people'
p1394
I131
sS'Maharashtra politician stubs'
p1395
I1484
sS'People from Gautam Buddh Nagar district'
p1396
I1984
sS'Fictional Romani people'
p1397
I442
sS'People from Birbhum district'
p1398
I1820
sS'People from Bankura district'
p1399
I1751
sS'Anglican Bishops of Bombay'
p1400
I241
sS'People from Latur'
p1401
I2231
sS'Karnataka academics'
p1402
I1389
sS'University of Mumbai faculty'
p1403
I3010
sS'People from Howrah district'
p1404
I2052
sS'Sportspeople from Jaipur'
p1405
I2947
sS'Dance India Dance contestants'
p1406
I390
sS'Indian Muslim activists'
p1407
I994
sS'Indian dentists'
p1408
I646
sS'Indian biologists'
p1409
I576
sS'14th-century Indian people'
p1410
I8
sS'17th-century Indian women'
p1411
I32
sS'Indian male actors'
p1412
I919
sS'Local political office-holders in India'
p1413
I1452
sS'People from Kakinada'
p1414
I2119
sS'Irani people'
p1415
I1346
sS'People from Lakhisarai district'
p1416
I2224
sS'Revolutionary movement for Indian independence'
p1417
I2869
sS'People from Himachal Pradesh by occupation'
p1418
I2043
sS'People from Jammu district'
p1419
I2087
sS'21st-century Indian educators'
p1420
I100
sS'People from Ahmednagar district'
p1421
I1665
sS'Hyderabad State people'
p1422
I500
sS'People from Himachal Pradesh'
p1423
I2041
sS'People from Begusarai district'
p1424
I1777
sS'Indian educators'
p1425
I699
sS'Adivasi women'
p1426
I183
sS'American artists of Indian descent'
p1427
I211
sS'Indian diaspora in Trinidad and Tobago'
p1428
I690
sS'People from South Tripura district'
p1429
I2601
sS'Indian financial analysts'
p1430
I826
sS'People from Barnala district'
p1431
I1767
sS'People from Chatra district'
p1432
I1850
sS'Artists from Varanasi'
p1433
I255
sS'Indian metallurgists'
p1434
I958
sS'People from Kottayam district'
p1435
I2203
sS'People from Odisha'
p1436
I2388
sS'Indian diaspora templates'
p1437
I691
sS'People from Muzaffarpur'
p1438
I2330
sS'Pushyabhuti dynasty'
p1439
I2810
sS'People from Shahid Bhagat Singh Nagar district'
p1440
I2543
sS'People from Jalandhar district'
p1441
I2074
sS'Indian theatre critics'
p1442
I1264
sS'People from Dungarpur district'
p1443
I1937
sS'Zanzibari people of Indian descent'
p1444
I3101
sS'People from Pilibhit district'
p1445
I2429
sS'Assassinated Indian politicians'
p1446
I263
sS'People from Neemuch'
p1447
I2368
sS'Activists from Himachal Pradesh'
p1448
I149
sS'People from Gujarat by district'
p1449
I2008
sS'People from West Jaintia Hills district'
p1450
I2738
sS'Indian accountants'
p1451
I513
sS'People from Tirunelveli'
p1452
I2662
sS'Works by Chitra Banerjee Divakaruni'
p1453
I3088
sS'Pandyan dynasty'
p1454
I1605
sS'20th-century Indian women'
p1455
I93
sS'Maharashtra Navnirman Sena politicians'
p1456
I1483
sS'People from Vidisha district'
p1457
I2716
sS'Maharajas of Bikaner'
p1458
I1466
sS'People from Pratapgarh, Uttar Pradesh'
p1459
I2440
sS'Telugu diaspora'
p1460
I2988
sS'Indian film actors'
p1461
I813
sS'Kajol'
p1462
I1380
sS'Ashoka'
p1463
I257
sS'Raj Kapoor'
p1464
I2822
sS'Telangana politicians'
p1465
I2984
sS'Indian scenic designers'
p1466
I1189
sS'Indian people of Australian descent'
p1467
I1055
sS'Memorials to Maharana Pratap'
p1468
I1533
sS'People from Chamarajanagar district'
p1469
I1837
sS'Vaikom Muhammad Basheer'
p1470
I3018
sS'Janathipathiya Samrakshana Samithy politicians'
p1471
I1361
sS'Bharatiya Lok Dal politicians'
p1472
I291
sS'People from Dewas district'
p1473
I1909
sS'Indian film directors'
p1474
I818
sS'People from Jagatsinghpur district'
p1475
I2067
sS'Republican Party of India politicians'
p1476
I2864
sS'People from Virudhunagar district'
p1477
I2720
sS'Andhra Pradesh politician stubs'
p1478
I239
sS'Indian journalists by state'
p1479
I897
sS'People from Guntur'
p1480
I2015
sS'People from West Bengal'
p1481
I2730
sS'People from Una district'
p1482
I2690
sS'Indian health activists'
p1483
I845
sS'Sportspeople from the Andaman and Nicobar Islands'
p1484
I2952
sS'People from Coimbatore'
p1485
I1870
sS'19th-century Indian musicians'
p1486
I58
sS'Maharajas of Indore'
p1487
I1470
sS'Indian businesspeople by state'
p1488
I588
sS'Indian expatriates in Singapore'
p1489
I790
sS'People from Bangalore by occupation'
p1490
I1747
sS'Politicians from Mangalore'
p1491
I2785
sS'Women of the Sikh Empire'
p1492
I3081
sS'Indian film biography stubs'
p1493
I816
sS'Indian comedians'
p1494
I625
sS'People from Jhabua'
p1495
I2097
sS'People from Botad district'
p1496
I1825
sS'People from Thiruvananthapuram district'
p1497
I2650
sS'Hindi-language newspapers published in Fiji'
p1498
I490
sS'Indian military personnel by state'
p1499
I965
sS'Indian city founders'
p1500
I617
sS'People from Thiruvananthapuram'
p1501
I2648
sS'Indian international schools in Kuwait'
p1502
I870
sS'Novels by Kavita Daswani'
p1503
I1586
sS'Mangalore municipal councillors'
p1504
I1496
sS'People from Chitradurga district'
p1505
I1864
sS'People from Gir Somnath district'
p1506
I1991
sS'Indian diaspora in the United Kingdom'
p1507
I688
sS'People from Gonda district'
p1508
I2000
sS'People from Puducherry by district'
p1509
I2442
sS'Indian number theorists'
p1510
I1014
sS'People from Dausa district'
p1511
I1895
sS'Indian feminists'
p1512
I810
sS'People from Thanjavur'
p1513
I2642
sS'Recipients of the Padma Shri in sports'
p1514
I2851
sS'People from Khargone district'
p1515
I2170
sS'Indian women surgeons'
p1516
I1322
sS'People from Baramulla'
p1517
I1755
sS'Indian people imprisoned on charges of terrorism'
p1518
I1043
sS"Women's rights in India"
p1519
I3084
sS'Indian diaspora by ethnic group'
p1520
I653
sS'People from Lalitpur, India'
p1521
I2229
sS'Mughal Empire people'
p1522
I1548
sS'Indian people by war'
p1523
I1038
sS'People from Chennai'
p1524
I1851
sS'People from Tirupur district'
p1525
I2666
sS'People from Hathras district'
p1526
I2038
sS'People from Bijnor district'
p1527
I1814
sS'Jammu &amp; Kashmir National Conference politicians'
p1528
I1353
sS'People from Namsai district'
p1529
I2353
sS'Indian genealogists'
p1530
I840
sS'Indian writers by genre'
p1531
I1333
sS'People from Bharuch district'
p1532
I1790
sS'People from Tarn Taran district'
p1533
I2630
sS'Ambassadors of India'
p1534
I209
sS'Indian people of Spanish descent'
p1535
I1095
sS'People from Narsinghpur'
p1536
I2360
sS'Prabhat Ranjan Sarkar'
p1537
I2791
sS'People from Panna district'
p1538
I2411
sS'Ranjit Singh'
p1539
I2829
sS'People from Gadag district'
p1540
I1972
sS'People from Sant Ravidas Nagar district'
p1541
I2526
sS'People from Kalyan-Dombivali'
p1542
I2121
sS'Activists from Uttar Pradesh'
p1543
I168
sS'Indian academic biography stubs'
p1544
I510
sS'People from Nanded'
p1545
I2354
sS'Bangla Congress politicians'
p1546
I277
sS'Indian athletics biography stubs'
p1547
I564
sS'Bihar cadre civil servants'
p1548
I296
sS'People from Punjab, India'
p1549
I2449
sS'People from Shahjahanpur'
p1550
I2544
sS'People from Rajpur Sonarpur'
p1551
I2476
sS'Indian stage actors'
p1552
I1242
sS'Politicians from Udaipur'
p1553
I2787
sS'Indian people of Italian descent'
p1554
I1076
sS'People from Gurgaon district'
p1555
I2019
sS'Indian diplomats'
p1556
I692
sS'People from Ludhiana district'
p1557
I2245
sS'Indian prostitutes'
p1558
I1158
sS'People from Patna district'
p1559
I2424
sS'Anand Patwardhan'
p1560
I227
sS'Sportspeople of Indian descent'
p1561
I2956
sS'People from Karnataka by district'
p1562
I2148
sS'Indian stunt performers'
p1563
I1246
sS'American women of Indian descent in health professions'
p1564
I224
sS'Sportspeople by city or town in India'
p1565
I2944
sS'20th-century Indian monks'
p1566
I83
sS'Indian Buddhist monks'
p1567
I579
sS'British Indian Army personnel killed in action'
p1568
I315
sS'Indian male models'
p1569
I930
sS'Indian Muslims'
p1570
I997
sS'People from Madhubani district'
p1571
I2248
sS'BSR Congress politicians'
p1572
I323
sS'Indian expatriates in Indonesia'
p1573
I772
sS'Actors from Bhopal'
p1574
I172
sS'Indian Sufi religious leaders'
p1575
I1247
sS'People of the Kingdom of Mysore'
p1576
I2770
sS'People of Indian-Jewish descent'
p1577
I2760
sS'Indian documentary filmmakers'
p1578
I694
sS'People from Surendranagar district'
p1579
I2621
sS'Pala Empire'
p1580
I1601
sS'Thane municipal councillors'
p1581
I2992
sS'People from Patiala district'
p1582
I2422
sS'People from Sawai Madhopur district'
p1583
I2531
sS'Nationalist Congress Party politicians'
p1584
I1569
sS'People from Basti district'
p1585
I1772
sS'Adivasi politicians'
p1586
I182
sS'People from Tirupati'
p1587
I2664
sS'Fictional American people of Indian descent'
p1588
I434
sS'20th-century Indian sportspeople'
p1589
I92
sS'Indian people in rail transport'
p1590
I1046
sS'Indian people convicted of manslaughter'
p1591
I1039
sS'People from Rohtak'
p1592
I2500
sS'Indian diaspora in Oman'
p1593
I678
sS'17th-century Indian people'
p1594
I28
sS'People by city in Odisha'
p1595
I1644
sS'People from Mandla'
p1596
I2275
sS'Indian computer specialists'
p1597
I632
sS'People from Etawah'
p1598
I1954
sS'Indian Christian religious leaders'
p1599
I611
sS'Indian geographers'
p1600
I841
sS'19th-century Indian painters'
p1601
I59
sS'Adivasi people'
p1602
I181
sS'People from Pathanamthitta'
p1603
I2418
sS'Railway Ministers of India'
p1604
I2815
sS'People from Bhilai'
p1605
I1794
sS'Indian whistleblowers'
p1606
I1280
sS'Indian photographers'
p1607
I1119
sS'People from the Andaman and Nicobar Islands by district'
p1608
I2645
sS'Lists of people from Kerala'
p1609
I1442
sS'People from Kra Daadi district'
p1610
I2206
sS'People from Bijapur district, Karnataka'
p1611
I1811
sS'Italian people of Indian descent'
p1612
I1350
sS'Sportspeople from Visakhapatnam'
p1613
I2955
sS'People from Shimoga'
p1614
I2555
sS'People from Panna, India'
p1615
I2412
sS'17th-century Indian writers'
p1616
I33
sS'Monarchs of Sikkim'
p1617
I1543
sS'Rajiv Gandhi National Quality Award recipients'
p1618
I2821
sS'People from Vaishali district'
p1619
I2708
sS'People from Washim district'
p1620
I2728
sS'Books by Amartya Sen'
p1621
I305
sS'A. P. J. Abdul Kalam'
p1622
I244
sS'Shah Ismail Shaheed'
p1623
I2915
sS'Indian sportsmen'
p1624
I1231
sS'People from Kapurthala district'
p1625
I2137
sS'Aamir Khan'
p1626
I138
sS'People from Karnataka'
p1627
I2147
sS'Indian cinematographers'
p1628
I616
sS'Indian lyricists'
p1629
I914
sS'People from Sheopur district'
p1630
I2551
sS'Indian Railways officers'
p1631
I1170
sS'Politicians of Indian descent'
p1632
I2789
sS'Aam Aadmi Party politician stubs'
p1633
I137
sS'Satavahana dynasty'
p1634
I2893
sS'Emperors of India'
p1635
I419
sS'Presidents of India'
p1636
I2799
sS'People from Narsinghpur district'
p1637
I2361
sS'People from Nilgiris district'
p1638
I2374
sS'People from Nadia district'
p1639
I2336
sS'People from Firozpur district'
p1640
I1971
sS'Jharkhand Party politicians'
p1641
I1370
sS'Ilyas Shahi dynasty'
p1642
I504
sS'Journalists by publication in India'
p1643
I1372
sS'Indian television chefs'
p1644
I1258
sS'Films produced by Krishnam Raju'
p1645
I452
sS'Chief Justices of the High Courts of India'
p1646
I352
sS'Novels by Kiran Desai'
p1647
I1587
sS'Mayors of places in India'
p1648
I1515
sS'National School of Drama alumni'
p1649
I1571
sS'Indian amputees'
p1650
I538
sS'Indian men'
p1651
I955
sS'Indian materialists'
p1652
I942
sS'People from Kushinagar district'
p1653
I2218
sS'People from Gomati district'
p1654
I1999
sS'People from Virar'
p1655
I2719
sS'Indian sportspeople stubs'
p1656
I1238
sS'Guadeloupean people of Indian descent'
p1657
I475
sS'Indian industrialists'
p1658
I862
sS'Communist Party of India politician stubs'
p1659
I373
sS'Nobel laureates from West Bengal'
p1660
I1582
sS'Indian male film directors'
p1661
I926
sS'People from Raipur district'
p1662
I2463
sS'Indian people by occupation by state'
p1663
I1032
sS'People from Nalbari district'
p1664
I2349
sS'Rashtriya Lok Dal politicians'
p1665
I2833
sS'People from Sultanpur district'
p1666
I2614
sS'Indian women scientists by state'
p1667
I1318
sS'Indian people of Austrian descent'
p1668
I1056
sS'People from Bikaner'
p1669
I1815
sS'People from Kohima district'
p1670
I2183
sS'Government ministers of India'
p1671
I472
sS'Indian people by occupation and century'
p1672
I1030
sS'Indian dancers'
p1673
I642
sS'People from Gonda, Uttar Pradesh'
p1674
I2001
sS'Indian expatriates in the United Arab Emirates'
p1675
I797
sS'Activists from Bihar'
p1676
I142
sS'People from Paschim Medinipur district'
p1677
I2416
sS'People from Rampur district'
p1678
I2483
sS'Indian writers by century'
p1679
I1331
sS'Lists of Indian sportspeople'
p1680
I1435
sS'People from Jalore district'
p1681
I2080
sS'People from Jhajjar district'
p1682
I2099
sS'Lists of political office-holders in India'
p1683
I1448
sS'People from Godda district'
p1684
I1996
sS'Indian writers'
p1685
I1330
sS'People by city in Madhya Pradesh'
p1686
I1639
sS'People from Ichalkaranji'
p1687
I2057
sS'People from Ambattur'
p1688
I1687
sS'Indian emigrants to Suriname'
p1689
I731
sS'Indian designers'
p1690
I648
sS'People of Indian descent by occupation'
p1691
I2759
sS'Salar Jung family'
p1692
I2883
sS'Indian female aviators'
p1693
I804
sS'Indian expatriates in Australia'
p1694
I760
sS'Indian businesspeople by century'
p1695
I586
sS'People from North West Delhi district'
p1696
I2386
sS'People from Manipur'
p1697
I2281
sS'Kidnapped Indian children'
p1698
I1403
sS'Mexican people of Indian descent'
p1699
I1536
sS'People with acquired Indian citizenship'
p1700
I2776
sS'Indian police officers'
p1701
I1128
sS'People from Sivaganga district'
p1702
I2582
sS'People from Thalassery'
p1703
I2639
sS'People from Mysore'
p1704
I2332
sS'Writers in British India'
p1705
I3097
sS'18th-century Indian artists'
p1706
I35
sS'People from Kandhamal district'
p1707
I2126
sS'People from Tripura by occupation'
p1708
I2675
sS'People from Aizawl district'
p1709
I1667
sS'Indian political candidates'
p1710
I1131
sS'Indian Wiccans'
p1711
I1281
sS'People from Agra district'
p1712
I1661
sS'People from Hubli- Dharwad'
p1713
I2053
sS'Indian military engineers'
p1714
I960
sS'People from Araria district'
p1715
I1708
sS'Indian expatriates in the United States'
p1716
I799
sS'Irish people of Indian descent'
p1717
I1348
sS'Followers of Meher Baba'
p1718
I454
sS'Swabhimani Paksha politicians'
p1719
I2971
sS'People from Nandurbar district'
p1720
I2356
sS'Activists from Telangana'
p1721
I165
sS'Mahls'
p1722
I1487
sS'People from Gulbarga'
p1723
I2010
sS'People from Uttara Kannada'
p1724
I2695
sS'Indian women artists'
p1725
I1286
sS'Indian Armenians'
p1726
I547
sS'Indian poker players'
p1727
I1126
sS'People from Bellary'
p1728
I1780
sS'People from Jabalpur'
p1729
I2065
sS'People from Damoh district'
p1730
I1885
sS'Activists from Varanasi'
p1731
I169
sS'People by city in Bihar'
p1732
I1628
sS'Jharkhand Vikas Morcha (Prajatantrik) politicians'
p1733
I1371
sS'People from Muzaffarnagar district'
p1734
I2329
sS'21st-century Indian sportspeople'
p1735
I116
sS'People of the Vijayanagara Empire'
p1736
I2774
sS'Indian prisoners sentenced to life imprisonment'
p1737
I1155
sS'Women from Manipur'
p1738
I3056
sS'Indian expatriates in China'
p1739
I766
sS'People from Katni district'
p1740
I2157
sS'People from Rupnagar district'
p1741
I2505
sS'People from North Delhi district'
p1742
I2380
sS'People from Krishnagiri district'
p1743
I2209
sS'Jammu and Kashmir academics'
p1744
I1354
sS'Indian emigrants to Trinidad and Tobago'
p1745
I738
sS'Paralympic medalists for India'
p1746
I1611
sS'Activists from Mizoram'
p1747
I158
sS'People from Solapur district'
p1748
I2588
sS'People from Pali district'
p1749
I2401
sS'Indian scholars of ancient Greek philosophy'
p1750
I1192
sS'Indian Islamic religious leaders'
p1751
I880
sS'LGBT writers from India'
p1752
I1425
sS'Disciples and friends of Swami Vivekananda'
p1753
I399
sS'People from Jalandhar'
p1754
I2073
sS'People of the Research and Analysis Wing'
p1755
I2773
sS'Lists of people by city in India'
p1756
I1440
sS'Revolutionary Socialist Party of Kerala (Bolshevik) politicians'
p1757
I2871
sS'Indian military personnel of World War II'
p1758
I970
sS'People from Bhubaneswar'
p1759
I1803
sS'Indian music people'
p1760
I993
sS'People from Baksa district'
p1761
I1733
sS'Administrators of Mahe'
p1762
I187
sS'People from Sheikhpura district'
p1763
I2549
sS'Indian religion academics'
p1764
I1173
sS'People of Romani descent'
p1765
I2766
sS'Indian astronomers'
p1766
I562
sS'People from Davanagere'
p1767
I1896
sS'Marathi diaspora'
p1768
I1499
sS'Indian judges'
p1769
I899
sS'People from Purnia'
p1770
I2454
sS'Indian operations researchers'
p1771
I1019
sS'Indian Institute of Technology Bombay people'
p1772
I863
sS'Indian enamellers'
p1773
I742
sS'Arijit Singh'
p1774
I246
sS'People from Kutch district'
p1775
I2219
sS'Indian independence activists from Odisha'
p1776
I860
sS'People from Araria'
p1777
I1707
sS'People from Ratlam district'
p1778
I2489
sS'People from Maharashtra by occupation'
p1779
I2258
sS'People from Tumkur'
p1780
I2677
sS'Shivaji'
p1781
I2922
sS'United Democratic Party (Meghalaya) politicians'
p1782
I3007
sS'Hussain Shahi dynasty'
p1783
I499
sS'Indian Institute of Technology Madras people'
p1784
I867
sS'Indo-Canadian culture'
p1785
I1341
sS'People from Cuttack district'
p1786
I1875
sS'Indian Indologists'
p1787
I861
sS'Rashtriya Lok Samata politicians'
p1788
I2834
sS'People from Pathanamthitta district'
p1789
I2419
sS'People from Goa'
p1790
I1992
sS'People from Haridwar district'
p1791
I2033
sS'Indian painters'
p1792
I1025
sS'Mumbai municipal councillors'
p1793
I1555
sS'Indian diaspora in Tanzania'
p1794
I684
sS'Indian people of Asian descent'
p1795
I1053
sS'Indian former Muslims'
p1796
I837
sS'Rajasthani people'
p1797
I2819
sS'People from Manipur by occupation'
p1798
I2283
sS'People from Aurangabad, Maharashtra'
p1799
I1725
sS'People from Chirang district'
p1800
I1863
sS'People from Salem district'
p1801
I2514
sS'Lists of Indian people'
p1802
I1429
sS'People from Moradabad district'
p1803
I2314
sS'Women leaders of India'
p1804
I3073
sS'People from Barmer district'
p1805
I1764
sS'People from Mandya district'
p1806
I2279
sS'People from Aurangabad district, Maharashtra'
p1807
I1724
sS'Indian musical theatre composers'
p1808
I985
sS'People from Gopalganj district, India'
p1809
I2003
sS'Maharajas of Vadodara'
p1810
I1479
sS'People from Khagaria district'
p1811
I2164
sS'Indian Sikh religious leaders'
p1812
I1212
sS'Indian Catholics'
p1813
I593
sS'People from Belgaum district'
p1814
I1779
sS'Bolshevik Party of India politicians'
p1815
I303
sS'People from Hapur district'
p1816
I2028
sS'People from Patan district'
p1817
I2417
sS'People from Kota district'
p1818
I2200
sS'People from Sopore'
p1819
I2593
sS'Indian nobility'
p1820
I1011
sS'Maharajas of Wankaner'
p1821
I1480
sS'People from Jamshedpur'
p1822
I2090
sS'Mayors of Thane'
p1823
I1518
sS'New Zealand people of Indian descent'
p1824
I1578
sS'Mamluk Sultanate (Delhi)'
p1825
I1494
sS'Madhva religious leaders'
p1826
I1459
sS'Indian physicists'
p1827
I1121
sS'Tibbetibaba'
p1828
I2993
sS'21st-century Indian businesspeople'
p1829
I97
sS'People from Korba district'
p1830
I2198
sS'Indian filmmakers'
p1831
I821
sS'Indian artisans'
p1832
I553
sS'Kamal Haasan'
p1833
I1385
sS'Mangaloreans'
p1834
I1495
sS'People from Bhojpur district, India'
p1835
I1800
sS'Indian actors by state'
p1836
I521
sS'People from Marathwada'
p1837
I2286
sS'Belizean people of Indian descent'
p1838
I283
sS'Rajasthan politician stubs'
p1839
I2820
sS'People from Bahraich district'
p1840
I1732
sS'People from Mathura'
p1841
I2288
sS'21st-century Indian philosophers'
p1842
I111
sS'Manipur academics'
p1843
I1497
sS'People from Odisha by district'
p1844
I2389
sS'People from Bhavnagar'
p1845
I1792
sS'French Guianan people of Indian descent'
p1846
I458
sS'People from Mathura district'
p1847
I2289
sS'People from New Delhi'
p1848
I2372
sS'Indian women of World War II'
p1849
I1310
sS'West Bengal academics'
p1850
I3030
sS'Indian photojournalists'
p1851
I1120
sS'People by city in Haryana'
p1852
I1632
sS'People from Shillong'
p1853
I2552
sS'People from Deoghar district'
p1854
I1904
sS'Omani people of Indian descent'
p1855
I1590
sS'People from Kishtwar district'
p1856
I2178
sS'Recipients of Indian military awards and decorations'
p1857
I2838
sS'People from Uttarkashi district'
p1858
I2701
sS'Women from Nagaland'
p1859
I3059
sS'People from Sundergarh district'
p1860
I2616
sS'People from East Sikkim district'
p1861
I1949
sS'Indian diaspora in China'
p1862
I662
sS'People from Rewari'
p1863
I2496
sS'Uttar Pradesh academics'
p1864
I3014
sS'Indian folklorists'
p1865
I828
sS'Indian calligraphers'
p1866
I591
sS'People from Jaipur'
p1867
I2068
sS'Lodhi dynasty'
p1868
I1453
sS'Indian astrological writers'
p1869
I560
sS'Samajwadi Party politicians'
p1870
I2885
sS'19th-century Indian artists'
p1871
I49
sS'Chandigarh academics'
p1872
I343
sS'Women from Tripura'
p1873
I3067
sS'Bharatiya Janata Party politician stubs'
p1874
I289
sS'People from Dharmapuri district'
p1875
I1917
sS'Madhya Pradesh politician stubs'
p1876
I1461
sS'People from Shahdol district'
p1877
I2542
sS'People from Surajpur district'
p1878
I2618
sS'Indian sports coaches'
p1879
I1228
sS'Expatriate actresses in India'
p1880
I424
sS'People from Giridih district'
p1881
I1990
sS'People from Nayagarh district'
p1882
I2367
sS'Himachal Pradesh politician stubs'
p1883
I488
sS'Coimbatore municipal councillors'
p1884
I365
sS'People from Longleng district'
p1885
I2238
sS'People of the Kingdom of Travancore'
p1886
I2771
sS'Swiss people of Indian descent'
p1887
I2975
sS'People from Lakhimpur district'
p1888
I2222
sS'Ethnic groups in Mumbai'
p1889
I421
sS'Chief Ministers of Mizoram'
p1890
I355
sS'People from Sehore'
p1891
I2533
sS'Indian people of Arab descent'
p1892
I1051
sS'People from Puducherry'
p1893
I2441
sS'Scientists from Varanasi'
p1894
I2902
sS'Indian male filmmakers'
p1895
I927
sS'Indian female dancers'
p1896
I805
sS'Dewan Bahadurs'
p1897
I398
sS'Indian film historians'
p1898
I820
sS'4th-century BC Indian people'
p1899
I124
sS'People from Satara district'
p1900
I2528
sS'People from Goalpara district'
p1901
I1995
sS'Communist Party of India (Marxist) politicians by state'
p1902
I369
sS'Vallabhbhai Patel'
p1903
I3019
sS'16th-century Indian people by occupation'
p1904
I18
sS'21st-century Indian actors'
p1905
I95
sS'Surveyors General of India'
p1906
I2970
sS'People from Purba Medinipur district'
p1907
I2452
sS'People from Nuapada district'
p1908
I2387
sS'Goan Catholics'
p1909
I471
sS'Indian emigrants to the United Arab Emirates'
p1910
I735
sS'Indian yogis'
p1911
I1337
sS'Indian people of Afghan descent'
p1912
I1048
sS'Indian cuisine in the United Kingdom'
p1913
I639
sS'Mughal clans of Pakistan'
p1914
I1546
sS'Indian Jains'
p1915
I887
sS'People from Morena'
p1916
I2316
sS'Indian diaspora by continent'
p1917
I651
sS'Characters in Silappatikaram'
p1918
I346
sS'People from Sonitpur district'
p1919
I2592
sS'People from Bathinda'
p1920
I1773
sS'People from Jalpaiguri district'
p1921
I2081
sS'People from Amravati'
p1922
I1690
sS'People from Sidhi district'
p1923
I2564
sS'Dynasties of Bengal'
p1924
I409
sS'Indian actors'
p1925
I518
sS'People from Agar Malwa district'
p1926
I1658
sS'People from Mokokchung district'
p1927
I2310
sS'Vadodara municipal councillors'
p1928
I3017
sS'Prisoners and detainees of British India'
p1929
I2802
sS'A. R. Rahman'
p1930
I248
sS'People from Jammu (city)'
p1931
I2086
sS'Dalit leaders'
p1932
I385
sS'Raveendran'
p1933
I2835
sS'Law firms of India'
p1934
I1416
sS'Konkani people'
p1935
I1409
sS'People from South Andaman district'
p1936
I2595
sS'People from Thiruvalla'
p1937
I2647
sS'People from Amreli district'
p1938
I1692
sS'South African people of Indian descent'
p1939
I2938
sS'Indian Hindu monks'
p1940
I847
sS'Indian expatriates in Sri Lanka'
p1941
I793
sS'Recipients of the Padma Bhushan in trade and industry'
p1942
I2849
sS'People from Jamtara district'
p1943
I2091
sS'Indian linguists'
p1944
I910
sS'Pratiharas'
p1945
I2797
sS'American women writers of Indian descent'
p1946
I226
sS'People from Mansa district, India'
p1947
I2284
sS'Indian people in arts occupations'
p1948
I1044
sS'Lists of people from Maharashtra'
p1949
I1443
sS'People from Gwalior district'
p1950
I2022
sS'People from Wokha district'
p1951
I2745
sS'People from Madhya Pradesh'
p1952
I2250
sS'Indian agricultural economists'
p1953
I531
sS'12th-century Indian people'
p1954
I4
sS'Tongan people of Indian descent'
p1955
I2997
sS'Indian fascists'
p1956
I803
sS'People from Ganderbal district'
p1957
I1976
sS'People from Delhi'
p1958
I1901
sS'Meher Baba tribute albums'
p1959
I1528
sS'Indian female musicians'
p1960
I807
sS'Indian diaspora in North America'
p1961
I676
sS'People from Talegaon'
p1962
I2624
sS'People from Hoshangabad'
p1963
I2048
sS'Indian justices of the peace'
p1964
I901
sS'Overseas Indian organisations'
p1965
I1594
sS'Indian mathematicians'
p1966
I944
sS'Indian Union Muslim League politicians'
p1967
I1274
sS'Indian diaspora'
p1968
I650
sS'People from Papum Pare district'
p1969
I2413
sS'Indian social scientists'
p1970
I1220
sS'Auroville'
p1971
I267
sS'20th-century Indian sculptors'
p1972
I91
sS'Screenplays by Kamal Haasan'
p1973
I2906
sS'Konkani Muslims'
p1974
I1408
sS'Indian civil servants'
p1975
I619
sS'People from Faridkot, Punjab'
p1976
I1960
sS'Chhattisgarh academics'
p1977
I349
sS'Indian activist stubs'
p1978
I516
sS'Recipients of the Rabindra Puraskar'
p1979
I2857
sS'People from Unakoti district'
p1980
I2691
sS'People from West Bengal by district'
p1981
I2731
sS'Advocates General for Indian states'
p1982
I189
sS'People from Yavatmal district'
p1983
I2749
sS'Travancore royal family'
p1984
I2998
sS'People from Dhule district'
p1985
I1925
sS'People from Surat'
p1986
I2619
sS'People from Tiruvottiyur'
p1987
I2670
sS'Anglo-Indian people'
p1988
I243
sS'People from Sipahijala district'
p1989
I2575
sS'Indian Jain monks'
p1990
I883
sS'People from Dergaon'
p1991
I1906
sS'People from Sonipat district'
p1992
I2591
sS'All India Indira Congress (Tiwari) politicians'
p1993
I201
sS'People from East Delhi district'
p1994
I1942
sS'1st-century BC Indian people'
p1995
I69
sS'People from Bokaro'
p1996
I1822
sS'Indian expatriates'
p1997
I757
sS'People from Srinagar'
p1998
I2610
sS'People from Hanumangarh district'
p1999
I2026
sS'Indian male hotelier'
p2000
I928
sS'Indian people executed abroad'
p2001
I1041
sS'People from Kokrajhar district'
p2002
I2184
sS'Indian entertainers'
p2003
I748
sS'Indian company founders'
p2004
I629
sS'Indian politicians by occupation'
p2005
I1141
sS'Indian women publishers'
p2006
I1314
sS'Indian Christians'
p2007
I612
sS'People from Pulwama district'
p2008
I2446
sS'Murdered Indian children'
p2009
I1557
sS'Indian sportswomen'
p2010
I1240
sS'People from Gorakhpur'
p2011
I2005
sS'Lists of people from Uttar Pradesh'
p2012
I1446
sS'Indian academics'
p2013
I511
sS'Tibetan Buddhists from India'
p2014
I2994
sS'People from Agra'
p2015
I1660
sS'Actors from Indore'
p2016
I173
sS'People from Meerut'
p2017
I2295
sS'Indian women social workers'
p2018
I1320
sS'Indian marketing people'
p2019
I939
sS'People from Kadapa'
p2020
I2115
sS'Indian emigrants to Zambia'
p2021
I739
sS'18th-century Indian educators'
p2022
I36
sS'People from Upper Siang district'
p2023
I2693
sS'Australian people of Indo-Fijian descent'
p2024
I269
sS'Indian journalists'
p2025
I895
sS'People from Thiruvananthapuram by occupation'
p2026
I2649
sS'Indians imprisoned during the Emergency (India)'
p2027
I1214
sS'People from Sri Muktsar Sahib'
p2028
I2608
sS'People of the Ahom kingdom'
p2029
I2768
sS'People from Gangtok'
p2030
I1980
sS'Indian people by religion'
p2031
I1035
sS'Soviet people of Indian descent'
p2032
I2940
sS'Indian Vaishnavites'
p2033
I1276
sS'People from Vadodara district'
p2034
I2707
sS'Viduthalai Chiruthaigal Katchi politicians'
p2035
I3023
sS'Indian expatriates in Hong Kong'
p2036
I771
sS'People from Puducherry district'
p2037
I2444
sS'People from Kalahandi district'
p2038
I2120
sS'Indian emigrants to Nepal'
p2039
I721
sS'Activists from Andhra Pradesh'
p2040
I139
sS'Indian animators'
p2041
I541
sS'People from Gujarat'
p2042
I2007
sS'Indian people of Hungarian descent'
p2043
I1071
sS'Prime Ministers of India'
p2044
I2800
sS'Artists from Mysore'
p2045
I253
sS'Recipients of the Bharat Ratna'
p2046
I2841
sS'People from Western Assam'
p2047
I2735
sS'20th-century Indian film directors'
p2048
I77
sS'Canadian people of Indian descent'
p2049
I334
sS'People from Tamil Nadu by district'
p2050
I2627
sS'People from Punjab, India by district'
p2051
I2450
sS'People from Etawah district'
p2052
I1955
sS'People from Jashpur district'
p2053
I2094
sS'Chinese people of Indian descent'
p2054
I361
sS'Indian socialites'
p2055
I1219
sS'People from Gadchiroli'
p2056
I1973
sS'People from Erode district'
p2057
I1952
sS'Indian nuclear engineers'
p2058
I1013
sS'Wikipedia categories named after Indian writers'
p2059
I3037
sS'Indian art directors'
p2060
I550
sS'Indian philatelists'
p2061
I1116
sS'People from Tikamgarh district'
p2062
I2657
sS'Indian Jain monarchs'
p2063
I882
sS'People from Dibrugarh district'
p2064
I1927
sS'People from Raisen district'
p2065
I2465
sS'Hindu biography stubs'
p2066
I491
sS'Indian Institute of Technology Kanpur people'
p2067
I866
sS'People from Sangrur'
p2068
I2523
sS'Indian women television directors'
p2069
I1323
sS'People from Secunderabad'
p2070
I2532
sS'Indian Foreign Secretaries'
p2071
I833
sS'Indian beekeepers'
p2072
I572
sS'People by city in Arunachal Pradesh'
p2073
I1626
sS'Burial sites of Pashtun dynasties'
p2074
I326
sS'People from Udaipur district'
p2075
I2680
sS'Scientists by city in India'
p2076
I2900
sS'Indian advertising people'
p2077
I527
sS'Activists from Goa'
p2078
I146
sS'People from Gandhidham'
p2079
I1977
sS'People from Nashik'
p2080
I2362
sS'Medieval Indian mathematicians'
p2081
I1523
sS'People from Raebareli district'
p2082
I2457
sS'Uttarakhand academics'
p2083
I3013
sS'Chairmans of the National Commission for Scheduled Castes'
p2084
I340
sS'People from West Sikkim district'
p2085
I2742
sS'People from Kanpur district'
p2086
I2135
sS'People from Shopian'
p2087
I2558
sS'People from Silchar'
p2088
I2570
sS'Indian empresses'
p2089
I741
sS'Arunachal Congress politicians'
p2090
I256
sS'Indian emigrants to Singapore'
p2091
I728
sS'People from Daman district, India'
p2092
I1884
sS'People from Jammu and Kashmir by district'
p2093
I2084
sS'Indian nanotechnologists'
p2094
I998
sS'Indian National Lok Dal politicians'
p2095
I1005
sS'Ghaznavid rulers'
p2096
I467
sS'Indian centenarians'
p2097
I594
sS'Services cricketers'
p2098
I2911
sS'People from Tripura'
p2099
I2673
sS'People from Rajkot'
p2100
I2471
sS'Indian polymer scientists and engineers'
p2101
I1149
sS'Chief ministers of Indian states by party'
p2102
I353
sS'Shiv Sena politicians'
p2103
I2923
sS'People from Bageshwar district'
p2104
I1730
sS'Indian emigrants to Switzerland'
p2105
I732
sS'People by city in Chhattisgarh'
p2106
I1629
sS'Indian National Congress politicians'
p2107
I1001
sS'People by city in Tamil Nadu'
p2108
I1648
sS'Indian film producers'
p2109
I823
sS'Indian people of Iranian descent'
p2110
I1073
sS'Adivasi writers'
p2111
I184
sS'Revolutionaries of the Indian Rebellion of 1857'
p2112
I2867
sS'Indian scientists'
p2113
I1198
sS'People from Madhya Pradesh by occupation'
p2114
I2252
sS'Republican Party of India (Khobragade) politicians'
p2115
I2863
sS'Indian expatriates in Nepal'
p2116
I782
sS'Indian women educators'
p2117
I1297
sS'Vinayak Damodar Savarkar'
p2118
I3026
sS'People from Pratapgarh district, Rajasthan'
p2119
I2438
sS'Indian critics'
p2120
I638
sS'Gibraltarian people of Indian descent'
p2121
I469
sS'Indian male philosophers'
p2122
I932
sS'Eastern Chalukyas'
p2123
I413
sS'People from Azamgarh district'
p2124
I1727
sS'People from Srikakulam district'
p2125
I2607
sS'R. K. Narayan'
p2126
I2872
sS'Indian physiologists'
p2127
I1122
sS'West Bengal politician stubs'
p2128
I3031
sS'Heads of state of India'
p2129
I485
sS'Indian sportspeople in doping cases'
p2130
I1237
sS'People from Kanpur Dehat district'
p2131
I2134
sS'Indian political journalists'
p2132
I1132
sS'People from Ulhasnagar'
p2133
I2688
sS'Lists of office-holders in India'
p2134
I1439
sS'Andhra Pradesh academics'
p2135
I238
sS'People from Dakshin Dinajpur district'
p2136
I1881
sS'20th-century Indian dancers'
p2137
I75
sS'Indian foresters'
p2138
I835
sS'Indian people of Caribbean descent'
p2139
I1061
sS'Karrani dynasty'
p2140
I1392
sS'Akshay Kumar'
p2141
I198
sS'Novels about Indian women'
p2142
I1584
sS'People from Anantnag'
p2143
I1699
sS'Women from Uttar Pradesh'
p2144
I3069
sS'Malaysian people of Indian descent'
p2145
I1493
sS'Indian expatriate academics'
p2146
I755
sS'People from Malappuram district'
p2147
I2269
sS'People from Uttar Dinajpur district'
p2148
I2699
sS'Indian radio producers'
p2149
I1169
sS'Pratihara empire'
p2150
I2796
sS'5th-century BC Indian people'
p2151
I126
sS'People from Gurdaspur district'
p2152
I2017
sS'Indian murder victims'
p2153
I983
sS'People from Bijbehara'
p2154
I1813
sS"Maharaja's College alumni"
p2155
I1463
sS'Thai people of Indian descent'
p2156
I2991
sS'Indian Tamil people'
p2157
I1256
sS'Indian people of Baloch descent'
p2158
I1057
sS'19th-century Indian people by occupation'
p2159
I61
sS'People from Hassan district'
p2160
I2037
sS'People from Khammam'
p2161
I2165
sS'Rai Bahadurs'
p2162
I2814
sS'People from Nanded district'
p2163
I2355
sS'Lists of Indian politicians'
p2164
I1433
sS'People from Malegaon'
p2165
I2271
sS'All India Forward Bloc politicians'
p2166
I200
sS'Indian expatriates in Russia'
p2167
I788
sS"Indian women's magazines"
p2168
I1319
sS'People from Bijapur, Karnataka'
p2169
I1812
sS'Indian horticulturists'
p2170
I853
sS'Indian dance teachers'
p2171
I644
sS'Botswana people of Indian descent'
p2172
I306
sS'People from Bokaro district'
p2173
I1823
sS'Eastern Ganga dynasty'
p2174
I414
sS'Indian libertarians'
p2175
I908
sS'People from Jharsuguda district'
p2176
I2106
sS'People from Nellore'
p2177
I2370
sS'People from Panchkula district'
p2178
I2405
sS'People from Imphal West district'
p2179
I2061
sS'People from Kannur district'
p2180
I2132
sS'Scholars from Varanasi'
p2181
I2897
sS'People from Chikkamagaluru district'
p2182
I1862
sS'Indian Engineering Service officers'
p2183
I743
sS'People from Sultanpur, Uttar Pradesh'
p2184
I2615
sS'Lists of Indian people by community'
p2185
I1430
sS'People by state in India'
p2186
I1653
sS'People from Daman and Diu'
p2187
I1882
sS'People from Sikkim by occupation'
p2188
I2569
sS'Biju Janata Dal politicians'
p2189
I299
sS'Wikipedia categories named after Indian musicians'
p2190
I3034
sS'People from Mon district'
p2191
I2311
sS'People from Purulia district'
p2192
I2456
sS'Bahraini people of Indian descent'
p2193
I272
sS'Indian social entrepreneurs'
p2194
I1217
sS'Indian emigrants to China'
p2195
I709
sS'Activists from Chhattisgarh'
p2196
I144
sS'Sportspeople from Pune'
p2197
I2950
sS'Indian international schools in Singapore'
p2198
I874
sS'Jammu and Kashmir Democratic Freedom Party politicians'
p2199
I1355
sS'People from North East Delhi district'
p2200
I2381
sS'Indian prisoners of war'
p2201
I1153
sS'Zimbabwean people of Indian descent'
p2202
I3102
sS'Indian football chairmen and investors'
p2203
I832
sS'Indian Sunni Muslims'
p2204
I1249
sS'Indian Zionists'
p2205
I1338
sS'Indian audio engineers'
p2206
I565
sS"Naga People's Front politicians"
p2207
I1565
sS'American sportswomen of Indian descent'
p2208
I220
sS'Indian people of Burmese descent'
p2209
I1060
sS'Gujarati diaspora'
p2210
I478
sS'Dalit activists'
p2211
I383
sS'Amartya Sen'
p2212
I207
sS'Indian actor stubs'
p2213
I522
sS'Indian radio journalists'
p2214
I1167
sS'People from Mizoram by occupation'
p2215
I2306
sS'People from Surguja district'
p2216
I2622
sS'Kerala academics'
p2217
I1397
sS'Lists of people by university or college in India'
p2218
I1441
sS'People from Aurangabad district, Bihar'
p2219
I1723
sS'People from Kasaragod district'
p2220
I2151
sS'21st-century Indian lawyers'
p2221
I104
sS'German people of Indian descent'
p2222
I465
sS'People from Sambalpur'
p2223
I2518
sS'People from Maharashtra by district'
p2224
I2257
sS'Pakistani people of Hyderabadi descent'
p2225
I1596
sS'People from Hisar district'
p2226
I2045
sS'People from Kargil district'
p2227
I2141
sS'People from Gulbarga district'
p2228
I2011
sS'Ror'
p2229
I2876
sS'Sayyid dynasty'
p2230
I2896
sS'Indian producers'
p2231
I1156
sS'People from Shahapur'
p2232
I2540
sS'18th-century Indian writers'
p2233
I46
sS'People from Kollam'
p2234
I2192
sS'People from Katihar'
p2235
I2154
sS'People from Vidisha'
p2236
I2715
sS'People from Aligarh district'
p2237
I1676
sS'Indian writers by language'
p2238
I1334
sS'People from Kolasib district'
p2239
I2186
sS'Murdered Indian police officers'
p2240
I1560
sS'Ghurid dynasty'
p2241
I468
sS'Akhil Bharatiya Sena politicians'
p2242
I197
sS'People from Kodagu district'
p2243
I2181
sS'Indian actors by century'
p2244
I519
sS'Jewellery retailers of India'
p2245
I1366
sS'People from Asansol'
p2246
I1716
sS'Activists from Manipur'
p2247
I156
sS'Indian people of Tibetan descent'
p2248
I1100
sS'18th-century Indian judges'
p2249
I37
sS'Ramakrishna'
p2250
I2826
sS'People from Chhattisgarh'
p2251
I1856
sS'Indian pornographic film actors'
p2252
I1150
sS'Paramara dynasty'
p2253
I1615
sS'Maharajas of Idar'
p2254
I1469
sS'People from Bhandara district'
p2255
I1788
sS'Barbadian people of Indian descent'
p2256
I279
sS'Indian Christian Scientists'
p2257
I614
sS'People from Bardhaman'
p2258
I1759
sS'People from Rajnandgaon'
p2259
I2473
sS'21st-century Indian painters'
p2260
I108
sS'People from Devbhoomi Dwarka district'
p2261
I1907
sS'Rajasthan academics'
p2262
I2818
sS'Indian Buddhist missionaries'
p2263
I578
sS'Judges of the High Courts of India'
p2264
I1374
sS'People from South West Delhi district'
p2265
I2602
sS'People from Palakkad district'
p2266
I2397
sS'People from Mungeli district'
p2267
I2325
sS'16th-century Indian politicians'
p2268
I20
sS'New Zealand people of Indo-Fijian descent'
p2269
I1579
sS'Indian sportsperson-politicians'
p2270
I1239
sS'Maharajas of Jammu and Kashmir'
p2271
I1472
sS'People by city in Nagaland'
p2272
I1643
sS'Recipients of the Arjuna Award'
p2273
I2840
sS'People from South Garo Hills district'
p2274
I2597
sS'Indian expatriates in the United Kingdom'
p2275
I798
sS'Desi culture'
p2276
I394
sS'Indian film editors'
p2277
I819
sS'Indian Christian saints'
p2278
I613
sS'Lists of Indian award winners'
p2279
I1427
sS'Indian international schools'
p2280
I868
sS'Malayali people'
p2281
I1492
sS'Uttar Pradhesh scholars'
p2282
I3016
sS'20th-century Indian actors'
p2283
I71
sS'Local government officers in India'
p2284
I1451
sS'People from Mumbai Suburban district'
p2285
I2324
sS'18th-century Indian architects'
p2286
I34
sS'Krishnan Medal recipients'
p2287
I1413
sS'Indian mechanical engineers'
p2288
I946
sS'Indian choreographers'
p2289
I607
sS'19th-century Indian women'
p2290
I67
sS'People from Meghalaya by district'
p2291
I2298
sS'British people of colonial India'
p2292
I318
sS'People from Sambalpur district'
p2293
I2519
sS'People from Lucknow'
p2294
I2242
sS'Shankar\xe2\x80\x93Ehsaan\xe2\x80\x93Loy'
p2295
I2917
sS'Indian Audits and Accounts Service officers'
p2296
I566
sS'Singaporean people of Indian descent'
p2297
I2933
sS'Indian contemporary artists'
p2298
I634
sS'People from Khordha district'
p2299
I2172
sS'People from Karbi Anglong district'
p2300
I2140
sS'Women of the Kingdom of Travancore'
p2301
I3077
sS'17th-century Indian philosophers'
p2302
I30
sS'Indian diaspora in Germany'
p2303
I666
sS'People from Siang district'
p2304
I2561
sS'Legislative deputy speakers in India'
p2305
I1420
sS'People from Darbhanga district'
p2306
I1889
sS'Kozhikode municipal councillors'
p2307
I1411
sS'People from Dima Hasao district'
p2308
I1928
sS'Indian emigrants to Indonesia'
p2309
I715
sS'Indian child businesspeople'
p2310
I601
sS'Pallava dynasty'
p2311
I1603
sS'Indian art historians'
p2312
I552
sS'Tata family'
p2313
I2981
sS'Bharatiya Janata Party politicians'
p2314
I288
sS'Women from Gujarat'
p2315
I3047
sS'Indian historians'
p2316
I850
sS'Indian women editors'
p2317
I1295
sS'People from Rishikesh'
p2318
I2499
sS'Indian environmental lawyers'
p2319
I750
sS'People by city in India'
p2320
I1634
sS'Indian anarchists'
p2321
I539
sS'Indian numismatists'
p2322
I1015
sS'People from Gondia district'
p2323
I2002
sS'People from Valsad district'
p2324
I2709
sS'People from Maharashtra'
p2325
I2256
sS'Indian women philosophers'
p2326
I1312
sS'People from Kolhapur'
p2327
I2187
sS'People from Tribeni'
p2328
I2672
sS'Kalpana Chawla'
p2329
I1384
sS'People from Kerala by district'
p2330
I2162
sS'Indian religious sceptics'
p2331
I1176
sS'Railway officers in British India'
p2332
I2816
sS'People from Chennai by occupation'
p2333
I1852
sS'People from Hingoli district'
p2334
I2044
sS'Indian museologists'
p2335
I984
sS'Murdered Indian mobsters'
p2336
I1559
sS'19th-century Indian writers'
p2337
I68
sS'People from Aligarh'
p2338
I1675
sS'People from Ahmednagar'
p2339
I1664
sS'Indian-Australian culture and history'
p2340
I567
sS'People from Mount Abu'
p2341
I2320
sS'People from Banka district'
p2342
I1750
sS'People from Bhatpara'
p2343
I1791
sS'Indian expatriates in Argentina'
p2344
I759
sS'Romani people'
p2345
I2875
sS'People from Nagaland'
p2346
I2337
sS'People from Raichur'
p2347
I2458
sS'People from West Kameng district'
p2348
I2739
sS'People from Dadra and Nagar Haveli'
p2349
I1876
sS'People from Jammu and Kashmir'
p2350
I2083
sS'Indian computer scientists'
p2351
I631
sS'Female Sikh warriors'
p2352
I433
sS'Medieval Indian historians'
p2353
I1522
sS'Early Chalukyas'
p2354
I412
sS'Roman Catholic archbishops of Agra'
p2355
I2873
sS"People's Party of Arunachal politicians"
p2356
I2775
sS'Krishnam Raju'
p2357
I1412
sS'Philosophers of Mithila'
p2358
I2778
sS'Indian business and financial journalists'
p2359
I582
sS'People from Kolkata by occupation'
p2360
I2190
sS'British police officers in India'
p2361
I322
sS'People from Imphal East district'
p2362
I2060
sS'Indian artists by state'
p2363
I556
sS'Indian expatriates in Qatar'
p2364
I787
sS'People from Mohali district'
p2365
I2309
sS'People from Mangalore'
p2366
I2280
sS'Women from Puducherry'
p2367
I3061
sS'Indian people of Portuguese descent'
p2368
I1087
sS'Schools affiliated with the Sathya Sai Organization'
p2369
I2898
sS'People from Hyderabad, India by occupation'
p2370
I2056
sS'Indian male designers'
p2371
I925
sS'People from Andhra Pradesh by occupation'
p2372
I1703
sS'Indian people of New Zealand descent'
p2373
I1082
sS'People from Simdega district'
p2374
I2572
sS'Ombudsmen in India'
p2375
I1591
sS'Indian poet stubs'
p2376
I1125
sS'8th-century Indian people'
p2377
I133
sS'19th-century Indian businesspeople'
p2378
I50
sS"Farmers' suicides in India"
p2379
I429
sS'Activists from Odisha'
p2380
I159
sS'Panjab University, Chandigarh alumni'
p2381
I1607
sS'Adivasi'
p2382
I178
sS'People from Jaunpur district'
p2383
I2095
sS'Artists from Chennai'
p2384
I250
sS'People from Morigaon district'
p2385
I2318
sS'People from Hamirpur district, Uttar Pradesh'
p2386
I2025
sS'People from Navsari district'
p2387
I2365
sS'Indian screenwriters'
p2388
I1202
sS'All India United Democratic Front politicians'
p2389
I204
sS'Indian emigrants to the Netherlands'
p2390
I733
sS'21st-century Indian artists'
p2391
I96
sS'Fictional Indian people'
p2392
I439
sS'Indian Sufis'
p2393
I1248
sS'Indian engravers'
p2394
I747
sS'Indian male television directors'
p2395
I934
sS'19th-century Indian politicians'
p2396
I64
sS'People from Samastipur district'
p2397
I2516
sS'20th-century Indian lawyers'
p2398
I81
sS'People from Kurukshetra district'
p2399
I2216
sS'People from Palakkad'
p2400
I2396
sS'Films about Gautama Buddha'
p2401
I447
sS'Indian educators by century'
p2402
I700
sS'People from Khargone'
p2403
I2169
sS'Spouses of Presidents of India'
p2404
I2957
sS'People from Thrissur district'
p2405
I2655
sS'Chembai'
p2406
I347
sS'Indian diaspora in Jamaica'
p2407
I670
sS'Ramdev'
p2408
I2828
sS'People from West Singhbhum district'
p2409
I2743
sS'People from Anuppur district'
p2410
I1706
sS'Women of the Maratha Empire'
p2411
I3078
sS'People from Kanpur'
p2412
I2133
sS'Haryana academics'
p2413
I483
sS'Indian chemical engineers'
p2414
I597
sS'Indian child singers'
p2415
I606
sS'Gautama Buddha in popular culture'
p2416
I463
sS'People from Karaikal district'
p2417
I2138
sS'Mughal soldiers'
p2418
I1554
sS'Tughlaq dynasty'
p2419
I3002
sS'People from Tripura by district'
p2420
I2674
sS'Medieval Indian astrologers'
p2421
I1521
sS'Subhas Chandra Bose'
p2422
I2963
sS'People from Tonk district'
p2423
I2671
sS'Indian people of Kenyan descent'
p2424
I1079
sS'Lokayuktas'
p2425
I1454
sS'3rd-century Indian people'
p2426
I123
sS'People from Kamrup district'
p2427
I2123
sS'Rashtriya Janata Party politicians'
p2428
I2832
sS'Indian poets'
p2429
I1124
sS'People from Jaisalmer district'
p2430
I2071
sS'Sikkim academics'
p2431
I2929
sS'People from Telangana by occupation'
p2432
I2637
sS'People from Bhilwara district'
p2433
I1796
sS'Republican Party of India (A) politicians'
p2434
I2862
sS'Political office-holders in India'
p2435
I2780
sS'Activists from Haryana'
p2436
I148
sS'People from Kolhapur district'
p2437
I2188
sS'People from Shajapur district'
p2438
I2547
sS'Leaders of the Pakistan Movement'
p2439
I1419
sS'Kamrupi people'
p2440
I1386
sS'People from Manipur by district'
p2441
I2282
sS'13th-century Indian women'
p2442
I7
sS'American businesswomen of Indian descent'
p2443
I212
sS'People from Chittorgarh district'
p2444
I1867
sS'Imperial Forestry Service officers'
p2445
I508
sS'People from Noida'
p2446
I2377
sS'Bharipa Bahujan Mahasangh politicians'
p2447
I292
sS'Indian nature photographers'
p2448
I1006
sS'People from Shravasti district'
p2449
I2560
sS'Indian graffiti artists'
p2450
I843
sS'20th-century Indian writers'
p2451
I94
sS'People from Golaghat'
p2452
I1997
sS'People from Bangalore'
p2453
I1746
sS'People from Kaimur district'
p2454
I2117
sS'Indian Tamil academics'
p2455
I1255
sS'People from Dimapur district'
p2456
I1929
sS'Legislative speakers in India'
p2457
I1422
sS'People from Meghalaya'
p2458
I2297
sS'People from Surat district'
p2459
I2620
sS'Indian diaspora in South Africa'
p2460
I681
sS'Indian Internet celebrities'
p2461
I876
sS'People from Varanasi'
p2462
I2710
sS'People from Sirohi district'
p2463
I2577
sS'Gujarat politician stubs'
p2464
I481
sS'People from Bathinda district'
p2465
I1774
sS'Indian spies'
p2466
I1226
sS"Children's television channels in India"
p2467
I359
sS'People from Fatehabad, Haryana'
p2468
I1964
sS'People by city in West Bengal'
p2469
I1650
sS'Indian missionaries'
p2470
I975
sS'Indian people by occupation by city'
p2471
I1031
sS'Indian al-Qaeda members'
p2472
I535
sS'People from Supaul district'
p2473
I2617
sS'People from Balangir district'
p2474
I1735
sS'14th-century Indian women'
p2475
I9
sS'People from Goa by occupation'
p2476
I1994
sS'Indian sculptors'
p2477
I1203
sS'People from Thrissur'
p2478
I2654
sS'People from Kangra district'
p2479
I2127
sS'Indian women by occupation'
p2480
I1288
sS'People from Alipurduar'
p2481
I1677
sS'People from Jhunjhunu district'
p2482
I2107
sS'People from Chennai district'
p2483
I1853
sS'Indian essayists'
p2484
I753
sS'21st-century Indian film directors'
p2485
I101
sS'Ancient Indian people'
p2486
I230
sS'People from Nagercoil'
p2487
I2343
sS'People from Parbhani'
p2488
I2414
sS'Chahamanas of Shakambhari'
p2489
I339
sS'Venezuelan people of Indian descent'
p2490
I3021
sS'Chahamanas of Naddula'
p2491
I338
sS'People from Kannur'
p2492
I2131
sS'People from Mehsana district'
p2493
I2300
sS'Indian diaspora in Ghana'
p2494
I667
sS'Indian philosophers'
p2495
I1117
sS'People by city in Mizoram'
p2496
I1642
sS'Vice-Presidents of India'
p2497
I3022
sS'Indian people of Singaporean descent'
p2498
I1091
sS'People from Uttarakhand by district'
p2499
I2697
sS'Indian prisoners sentenced to death'
p2500
I1154
sS'Kings of Mysore'
p2501
I1405
sS'People from Odisha by occupation'
p2502
I2390
sS'People from Dhule'
p2503
I1924
sS'Indian structural engineers'
p2504
I1245
sS'People from Kullu district'
p2505
I2211
sS'Indian storytellers'
p2506
I1244
sS'People from Rewa district'
p2507
I2494
sS'Indian puppeteers'
p2508
I1163
sS'Indian performance artists'
p2509
I1114
sS'19th-century Indian lawyers'
p2510
I57
sS'People from Belgaum'
p2511
I1778
sS'21st-century Indian military personnel'
p2512
I105
sS'Jamaican people of Indian descent'
p2513
I1352
sS'Ancient Indian scientists'
p2514
I233
sS'Praja Socialist Party politicians'
p2515
I2794
sS'Indian people of French descent'
p2516
I1069
sS'Indian military leaders'
p2517
I961
sS'Indian people of Trinidad and Tobago descent'
p2518
I1101
sS'People from Korba'
p2519
I2197
sS'Indian people of Brazilian descent'
p2520
I1059
sS'19th-century Indian jurists'
p2521
I56
sS'Janata Dal (United) politicians'
p2522
I1359
sS'Children of the President of India'
p2523
I358
sS'Women from Chandigarh'
p2524
I3043
sS'People from Kathua district'
p2525
I2153
sS'Indian people of Ugandan descent'
p2526
I1103
sS'Indian expatriates in Italy'
p2527
I775
sS'Lists of Indian people by school affiliation'
p2528
I1432
sS'People from Gadchiroli district'
p2529
I1974
sS'Andorran people of Indian descent'
p2530
I240
sS'Janata Party politicians'
p2531
I1360
sS'Indian dewans'
p2532
I649
sS'People from Akola district'
p2533
I1672
sS'Indian environmentalists'
p2534
I749
sS'Indian emigrants to Italy'
p2535
I718
sS'Indian production designers'
p2536
I1157
sS'People from Bhagalpur'
p2537
I1786
sS'Socialist Unity Centre of India (Communist) politicians'
p2538
I2934
sS'Indian military personnel'
p2539
I962
sS'Indian expatriates in Myanmar'
p2540
I781
sS'People from Punjab, India by occupation'
p2541
I2451
sS'People from Ranga Reddy district'
p2542
I2487
sS'Indian women television journalists'
p2543
I1324
sS'Activists from Chandigarh'
p2544
I143
sS'21st-century Indian judges'
p2545
I103
sS'People from Mizoram'
p2546
I2304
sS'Sikh people stubs'
p2547
I2928
sS'Indian science journalists'
p2548
I1197
sS'Dalit politicians'
p2549
I387
sS'Lay disciples of Ramakrishna'
p2550
I1417
sS'Indian people of Czech descent'
p2551
I1064
sS'People by city in India by state or territory'
p2552
I1635
sS'Bengali artists'
p2553
I285
sS'Indian printers'
p2554
I1151
sS'Narayana Guru'
p2555
I1566
sS'Indian architects by century'
p2556
I545
sS'Parsi culture'
p2557
I1616
sS'Works by Sri Aurobindo'
p2558
I3094
sS'Pala dynasty (Kamarupa)'
p2559
I1600
sS'Varman dynasty'
p2560
I3020
sS'People from Brahmapur'
p2561
I1827
sS'Indian caricaturists'
p2562
I592
sS'People from Dadra and Nagar Haveli by district'
p2563
I1877
sS'Images of Mahatma Gandhi'
p2564
I506
sS'Indian women historians'
p2565
I1301
sS'People from Bhiwandi'
p2566
I1798
sS'Indian people of Swedish descent'
p2567
I1097
sS'Indian Sunni Muslim scholars of Islam'
p2568
I1250
sS'Women from Mizoram'
p2569
I3058
sS'Rulers of Marwar'
p2570
I2878
sS'Rabindranath Tagore'
p2571
I2813
sS'Indian women filmmakers'
p2572
I1299
sS'Hong Kong people of Indian descent'
p2573
I496
sS'VidyaSagar'
p2574
I3025
sS'Indian sportspeople by sport'
p2575
I1235
sS'People from Imphal'
p2576
I2059
sS'Indian sailors'
p2577
I1185
sS'People from Dharamshala'
p2578
I1915
sS'People from Jorhat district'
p2579
I2111
sS'Indian nutritionists'
p2580
I1017
sS'Sportspeople from Bhopal'
p2581
I2945
sS'Chola dynasty'
p2582
I362
sS'People from Durg district'
p2583
I1940
sS'Governors-General of India'
p2584
I473
sS'Fellows of the National Academy of Agricultural Sciences'
p2585
I432
sS'Mayors of Gwalior'
p2586
I1509
sS'Military personnel of British India'
p2587
I1538
sS'Women from Goa'
p2588
I3046
sS'People from Patiala'
p2589
I2421
sS'Indian people by role'
p2590
I1036
sS'Sri Lankan people of Indian descent'
p2591
I2960
sS'People from Muzaffarpur district'
p2592
I2331
sS'People from Indore district'
p2593
I2063
sS'People from Delhi by occupation'
p2594
I1903
sS'Indian women educational theorists'
p2595
I1296
sS'People from Mormugao'
p2596
I2319
sS'People from Mahe district'
p2597
I2261
sS'People from Sahibganj district'
p2598
I2512
sS'Indian people of Sri Lankan descent'
p2599
I1096
sS'People from Khandwa'
p2600
I2167
sS'Indian sex workers'
p2601
I1207
sS'Tata Group people'
p2602
I2982
sS'Maharajas of Alwar'
p2603
I1464
sS'Women from Maharashtra'
p2604
I3055
sS'Indian actor-politicians'
p2605
I517
sS'History of women in India'
p2606
I495
sS'People from Tehri Garhwal district'
p2607
I2634
sS'6th-century Indian people'
p2608
I129
sS'Bahmani Sultans'
p2609
I271
sS'Participants in the Telangana Rebellion'
p2610
I1619
sS'Indian scientist stubs'
p2611
I1201
sS'Activists from West Bengal'
p2612
I170
sS'Senior Advocates in India'
p2613
I2909
sS'People from Mau district'
p2614
I2291
sS'People of Telugu descent'
p2615
I2767
sS'Indian Buddhists'
p2616
I581
sS'Korean people of Indian descent'
p2617
I1410
sS'People from Sangli district'
p2618
I2522
sS'21st-century Indian musicians'
p2619
I107
sS'People from Anantapur district'
p2620
I1698
sS'Indian media people'
p2621
I947
sS'Indian Navy personnel'
p2622
I1007
sS'People from Telangana'
p2623
I2635
sS'United Goans Party politicians'
p2624
I3008
sS'Indian sports executives and administrators'
p2625
I1229
sS'People from Anantnag district'
p2626
I1700
sS'Indian Orthodox Jews'
p2627
I1023
sS'People from Ujjain district'
p2628
I2686
sS'People from Goa by district'
p2629
I1993
sS'Burial sites of Muslim dynasties of India'
p2630
I325
sS'Dadra and Nagar Haveli politicians'
p2631
I382
sS'Indian optometrists'
p2632
I1021
sS'Indian people of Japanese descent'
p2633
I1077
sS'People from Daman and Diu by district'
p2634
I1883
sS'Indian dramatists and playwrights'
p2635
I695
sS'Indian secular activists'
p2636
I1205
sS'People from Yanam district'
p2637
I2748
sS'Communist Party of India (Marxist\xe2\x80\x93Leninist) Liberation politicians'
p2638
I367
sS'18th-century Indian women'
p2639
I45
sS'Priyanka Chopra songs'
p2640
I2804
sS'Indian dancers by state'
p2641
I643
sS'Wikipedia categories named after Indian people'
p2642
I3035
sS'Bangladeshi people of Indian descent'
p2643
I278
sS'People from Sidhi'
p2644
I2563
sS'Indian urban planners'
p2645
I1275
sS'Women from West Bengal'
p2646
I3070
sS'Bengali Hindus'
p2647
I287
sS'People from Guna district'
p2648
I2013
sS'Lists of Indian sportswomen'
p2649
I1436
sS'Akbar'
p2650
I195
sS'Indian expatriates in Israel'
p2651
I774
sS'People from Aravalli district'
p2652
I1709
sS'Indian people of Pashtun descent'
p2653
I1085
sS'Indian agronomists'
p2654
I533
sS'Scientists of Indian descent'
p2655
I2903
sS'People from Ghazipur district'
p2656
I1989
sS'Fictional Holocaust survivors'
p2657
I438
sS'People by educational institution in India'
p2658
I1652
sS'Samajwadi Janata Party politicians'
p2659
I2884
sS'People from Jhalawar district'
p2660
I2100
sS'Indian expatriate actors'
p2661
I756
sS'Indian mimes'
p2662
I973
sS'Dravida Munnetra Kazhagam politician stubs'
p2663
I405
sS'People from Aizawl'
p2664
I1666
sS'21st-century Indian child actors'
p2665
I98
sS'Desiya Murpokku Dravida Kazhagam politicians'
p2666
I396
sS'Ivorian people of Indian descent'
p2667
I1351
sS'People by university or college in Uttar Pradesh'
p2668
I1655
sS'Naga people'
p2669
I1564
sS'People from Allahabad'
p2670
I1680
sS'Indian spiritual teachers'
p2671
I1227
sS'Indian Mujahideen members'
p2672
I981
sS'Indian publishers (people)'
p2673
I1162
sS'Indian men by occupation'
p2674
I956
sS'Indian emigrants to Bahrain'
p2675
I705
sS'People from Idukki district'
p2676
I2058
sS'Fictional Canadian people of Indian descent'
p2677
I437
sS'Justices of the Supreme Court of India'
p2678
I1378
sS'People of the Kingdom of Cochin'
p2679
I2769
sS'Indian Senior Counsel'
p2680
I1206
sS'People from Ghaziabad district, India'
p2681
I1988
sS'Indian diaspora cuisine'
p2682
I654
sS'Indian sports journalists'
p2683
I1230
sS'People from Alappuzha'
p2684
I1673
sS'People from Kochi by occupation'
p2685
I2180
sS'Diwans of Travancore'
p2686
I403
sS'Women from Chhattisgarh'
p2687
I3044
sS'American people of Indian descent'
p2688
I216
sS'Punjabi academics'
p2689
I2806
sS'People from Sehore district'
p2690
I2534
sS'People from Rajahmundry'
p2691
I2466
sS'Indian translators'
p2692
I1273
sS'Lists of Indian writers'
p2693
I1438
sS'Politicians from Kozhikode'
p2694
I2784
sS'Novels by Anita Desai'
p2695
I1585
sS'Mayors of Pune'
p2696
I1516
sS"Women's organisations in India"
p2697
I3083
sS'Cabinet Secretaries of India'
p2698
I333
sS'People from Palamu district'
p2699
I2398
sS'Indian people of African descent'
p2700
I1049
sS'People from Visakhapatnam'
p2701
I2721
sS'3rd-century BC Indian people'
p2702
I122
sS'People from Mahendragarh district'
p2703
I2262
sS'People from Mayurbhanj district'
p2704
I2292
sS'Indian radio people'
p2705
I1168
sS'Indian writer navigational boxes'
p2706
I1329
sS'Tanzanian people of Indian descent'
p2707
I2980
sS'8th-century BC Indian people'
p2708
I132
sS'Indian art collectors'
p2709
I548
sS'People from Pathankot district'
p2710
I2420
sS'Indian diaspora in Myanmar'
p2711
I674
sS'People from Raisen'
p2712
I2464
sS'Indian people by state by occupation'
p2713
I1037
sS'Women from Himachal Pradesh'
p2714
I3049
sS'Sathya Sai Baba'
p2715
I2894
sS'Rebel groups in India'
p2716
I2836
sS'People educated by school in Rajasthan'
p2717
I1656
sS'Chief Ministers of Meghalaya'
p2718
I354
sS'Kenyan people of Indian descent'
p2719
I1396
sS'Bal Thackeray'
p2720
I276
sS'People from Bangalore Rural district'
p2721
I1748
sS'Jayadeva'
p2722
I1364
sS'Recipients of the Padma Shri in social work'
p2723
I2850
sS'People from Uttar Pradesh'
p2724
I2703
sS'Works by R. K. Narayan'
p2725
I3093
sS'People from Kendujhar district'
p2726
I2160
sS'People from Kulgam district'
p2727
I2210
sS'People from Kerala by occupation'
p2728
I2163
sS'Indian women television presenters'
p2729
I1325
sS'Indian emigrants to Rhodesia'
p2730
I727
sS'People from Mirzapur'
p2731
I2302
sS'Rajput rulers'
p2732
I2824
sS'Teachers of Indian classical dance'
p2733
I2983
sS'Indian expatriates in Canada'
p2734
I765
sS'People from Mapusa'
p2735
I2285
sS'Western Chalukya Empire'
p2736
I3032
sS'People from Mumbai by occupation'
p2737
I2322
sS'People from Muzaffarnagar'
p2738
I2328
sS'Indian expatriates in Afghanistan'
p2739
I758
sS'People from Nashik district'
p2740
I2363
sS'British people of Indo-Fijian descent'
p2741
I320
sS'People from Sri Muktsar Sahib district'
p2742
I2609
sS'Diwans of Mysore'
p2743
I402
sS'Iranian people of Indian descent'
p2744
I1345
sS'Workers Party of India politicians'
p2745
I3086
sS'People from Bemetara district'
p2746
I1782
sS'Odisha politician stubs'
p2747
I1589
sS'People from Hoshiarpur district'
p2748
I2050
sS'People from Tinsukia district'
p2749
I2658
sS'Indian diaspora in Thailand'
p2750
I685
sS'People from Warangal'
p2751
I2725
sS'People from Anjaw district'
p2752
I1705
sS'Women from Bihar'
p2753
I3042
sS'People from Sangli'
p2754
I2521
sS'People from Lower Siang district'
p2755
I2240
sS'Ilaiyaraaja'
p2756
I502
sS'People from Lower Dibang Valley district'
p2757
I2239
sS'Chief Justices of India'
p2758
I351
sS'Indian television child actors'
p2759
I1259
sS'People from Kottayam'
p2760
I2202
sS'Emirati people of Indian descent'
p2761
I418
sS'People from Barnala'
p2762
I1766
sS'People from Jammu'
p2763
I2082
sS'Mayors of Coimbatore'
p2764
I1507
sS'Indian diaspora in Fiji'
p2765
I665
sS'Indian neopagans'
p2766
I1008
sS'Activists from Arunachal Pradesh'
p2767
I140
sS'Indian expatriates in Kuwait'
p2768
I778
sS'People from Sitamarhi district'
p2769
I2580
sS'Indian diaspora in Canada'
p2770
I661
sS'Historians in the Mughal Empire'
p2771
I494
sS'16th-century Indian musicians'
p2772
I15
sS'Indian surveyors'
p2773
I1253
sS'9th-century BC Indian people'
p2774
I134
sS'Indian law biography stubs'
p2775
I903
sS'People from Lawngtlai district'
p2776
I2233
sS'People from Saharsa district'
p2777
I2511
sS'Indian aerospace engineers'
p2778
I528
sS'Indian Jains by century'
p2779
I888
sS'Bhartendu Academy of Dramatic Arts alumni'
p2780
I293
sS'French people of Indian descent'
p2781
I459
sS'People from Champawat district'
p2782
I1841
sS'Indian National Army personnel'
p2783
I999
sS'19th-century Indian dancers'
p2784
I51
sS'Chola kings'
p2785
I363
sS'People from Gurgaon'
p2786
I2018
sS'Indian architects'
p2787
I544
sS'Indian expatriates in Ivory Coast'
p2788
I776
sS'People from Bihar Sharif'
p2789
I1809
sS'People from Nalanda district'
p2790
I2347
sS'Indian rabbis'
p2791
I1166
sS'Tamil diaspora'
p2792
I2976
sS'Indian comics artists'
p2793
I626
sS'People from Jalgaon district'
p2794
I2077
sS'Indian Home Secretaries'
p2795
I852
sS'People from Karnal'
p2796
I2145
sS'17th-century Indian painters'
p2797
I27
sS'19th-century Indian people'
p2798
I60
sS'People from Davanagere district'
p2799
I1897
sS'Fellows of the Lalit Kala Akademi'
p2800
I431
sS'Sikh emperors'
p2801
I2927
sS'People from Modinagar'
p2802
I2307
sS'Ancient Indian women writers'
p2803
I235
sS'People from Karnal district'
p2804
I2146
sS'Activists from Tripura'
p2805
I166
sS'K\xc4\x81lid\xc4\x81sa'
p2806
I1383
sS'People from South Sikkim district'
p2807
I2599
sS'Indian religious biography stubs'
p2808
I1174
sS'Indira Gandhi'
p2809
I1340
sS'People from Madhepura district'
p2810
I2247
sS'People from Patna'
p2811
I2423
sS'Indian explorers'
p2812
I801
sS'Indian expatriates in France'
p2813
I769
sS'Indian musicians by city'
p2814
I989
sS'Indian emigrants to New Zealand'
p2815
I722
sS'People from Khammam district'
p2816
I2166
sS'Rashtriya Janata Dal politicians'
p2817
I2831
sS'People from Karimnagar district'
p2818
I2144
sS'Justice Party (India) politicians'
p2819
I1377
sS'Shreya Ghoshal'
p2820
I2924
sS'People from Jalna district'
p2821
I2079
sS'Indian musicians'
p2822
I988
sS'Indian roboticists'
p2823
I1181
sS'Maharajas of Bhavnagar'
p2824
I1465
sS'People from Kishanganj district'
p2825
I2177
sS'British people of Parsi descent'
p2826
I321
sS'Indian expatriates in the Soviet Union'
p2827
I796
sS'Indian diaspora in Guyana'
p2828
I668
sS'Indian people murdered abroad'
p2829
I1047
sS'People from Tamil Nadu'
p2830
I2626
sS'People from Morena district'
p2831
I2317
sS'Indian people by ethnic or national origin'
p2832
I1028
sS'Women from Haryana'
p2833
I3048
sS'Communist Party of India politicians by state'
p2834
I372
sS'Indian politicians by city or town'
p2835
I1140
sS'Indian conservationists'
p2836
I633
sS'Burmese people of Indian descent'
p2837
I327
sS'Indian Buddhist nuns'
p2838
I580
sS'Indian emigrants to Denmark'
p2839
I710
sS'People from New Delhi district'
p2840
I2373
sS'Anglican Bishops of Nasik'
p2841
I242
sS'Apna Dal politicians'
p2842
I245
sS'People from Mandsaur'
p2843
I2277
sS'People from Bihar by district'
p2844
I1807
sS'Bodo people'
p2845
I302
sS'ULFA members'
p2846
I3006
sS'Businesspeople from Mysore'
p2847
I331
sS'Indian opinion journalists'
p2848
I1020
sS'People from Mahoba district'
p2849
I2265
sS'People from Chamba, Himachal Pradesh'
p2850
I1839
sS'Indian monarchs'
p2851
I977
sS'Legislative leaders in India'
p2852
I1421
sS'People from Sivasagar'
p2853
I2583
sS'People from Palghar district'
p2854
I2400
sS'Hindu Mahasabha politicians'
p2855
I492
sS'Indian people of American descent'
p2856
I1050
sS'Indian warriors'
p2857
I1279
sS'Culture of Indian diaspora'
p2858
I380
sS'People from Siwan district'
p2859
I2585
sS'Indian military personnel by type'
p2860
I966
sS'People from Kaithal district'
p2861
I2118
sS'4th-century Indian people'
p2862
I125
sS'20th-century Indian people'
p2863
I86
sS'People from Vasco da Gama, Goa'
p2864
I2712
sS'People of the Maurya Empire'
p2865
I2772
sS'LGBT people from India'
p2866
I1424
sS'19th-century Indian architects'
p2867
I48
sS'Indian people stubs'
p2868
I1111
sS'Shreya Ghoshal albums'
p2869
I2925
sS'Indian Muslim pacifists'
p2870
I996
sS'Shreya Ghoshal songs'
p2871
I2926
sS'People from Boudh district'
p2872
I1826
sS'Indian art educators'
p2873
I551
sS'Paralympic swimmers of India'
p2874
I1613
sS'Maharajas of Kutch'
p2875
I1474
sS'All India Trinamool Congress politicians'
p2876
I203
sS'People from Betul district'
p2877
I1784
sS'People from East Champaran district'
p2878
I1941
sS'Indian political philosophers'
p2879
I1134
sS'Recipients of the Dronacharya Award'
p2880
I2842
sS'Indian people of Nepalese descent'
p2881
I1081
sS'People from Yamuna Nagar district'
p2882
I2747
sS'People from Ludhiana'
p2883
I2244
sS'Indian expatriates in Austria'
p2884
I761
sS'People from Bhuj'
p2885
I1804
sS'People by university or college in India'
p2886
I1654
sS'Critics of Sathya Sai Baba'
p2887
I379
sS'Indian politicians with physical disabilities'
p2888
I1148
sS'Brahmin titles'
p2889
I309
sS'People from Lakshadweep'
p2890
I2225
sS'Indian Christian monks'
p2891
I609
sS'Tamil Nadu academics'
p2892
I2978
sS'Indian people of South American descent'
p2893
I1093
sS'People from Upper Subansiri district'
p2894
I2694
sS'People from Anantapur, Andhra Pradesh'
p2895
I1697
sS'People from Karur district'
p2896
I2150
sS"Indian children's rights activists"
p2897
I604
sS'People from Madhya Pradesh by district'
p2898
I2251
sS'Indian comics writers'
p2899
I627
sS'People from Khandwa district'
p2900
I2168
sS'Maharajas of Rajasthan'
p2901
I1477
sS'People from Palghar'
p2902
I2399
sS'Indian male child actors'
p2903
I921
sS'17th-century Indian people by occupation'
p2904
I29
sS'Zambian people of Indian descent'
p2905
I3100
sS'Afghan people of Indian descent'
p2906
I190
sS'People from Kamarhati'
p2907
I2122
sS'Indian feminist writers'
p2908
I811
sS'Mahatma Gandhi'
p2909
I1486
sS'Telugu Desam Party politicians'
p2910
I2987
sS'Indian male television presenters'
p2911
I935
sS'Shiromani Akali Dal politicians'
p2912
I2921
sS'People from Himachal Pradesh by district'
p2913
I2042
sS'People from Barabanki, Uttar Pradesh'
p2914
I1754
sS'People from Akluj'
p2915
I1670
sS'Indian courtesans'
p2916
I636
sS'People from Ujjain'
p2917
I2685
sS'People from Rajasthan by occupation'
p2918
I2469
sS'Indian expatriates in Iran'
p2919
I773
sS'People from Palai'
p2920
I2395
sS'Indian memoirists'
p2921
I954
sS'Books about Swami Vivekananda'
p2922
I304
sS'People from Jodhpur'
p2923
I2109
sS'People from Osmanabad district'
p2924
I2392
sS'Swedish people of Indian descent'
p2925
I2974
sS'Indian women writers'
p2926
I1328
sS'Indian inventors'
p2927
I877
sS'16th-century Indian philosophers'
p2928
I19
sS'Asom Gana Parishad politicians'
p2929
I258
sS'People from Amroha district'
p2930
I1695
sS'Gautama Buddha'
p2931
I462
sS'16th-century Indian women'
p2932
I22
sS'People from Farrukhabad district'
p2933
I1962
sS'People from Dhenkanal district'
p2934
I1921
sS'People from Madurai'
p2935
I2253
sS'Tribal people from Assam'
p2936
I2999
sS'Kannada people'
p2937
I1388
sS'People from Nawada district'
p2938
I2366
sS'21st-century Indian sculptors'
p2939
I115
sS'Murdered Indian royalty'
p2940
I1561
sS'People from Sangrur district'
p2941
I2524
sS'Marathi people'
p2942
I1500
sS'People from Faridabad district'
p2943
I1958
sS'Indian guerrillas'
p2944
I844
sS'People from Kanchipuram district'
p2945
I2125
sS'Indian people of Iraqi descent'
p2946
I1074
sS'People from Telangana by district'
p2947
I2636
sS'People from Cachar district'
p2948
I1835
sS'People from Mewat district'
p2949
I2301
sS'Malayali diaspora'
p2950
I1490
sS'Indian women mathematicians'
p2951
I1309
sS'Indonesian people of Indian descent'
p2952
I1344
sS'Indian monks by century'
p2953
I979
sS'People from Baloda Bazar district'
p2954
I1738
sS'Scindia dynasty of Gwalior'
p2955
I2904
sS'Indian religious leaders'
p2956
I1175
sS'Twin people from India'
p2957
I3004
sS'Monastic disciples of Ramakrishna'
p2958
I1544
sS'Women from Odisha'
p2959
I3060
sS'People from Lakhimpur Kheri district'
p2960
I2223
sS'Indian Protestants'
p2961
I1159
sS'21st-century Indian politicians'
p2962
I113
sS'People from Perambalur district'
p2963
I2426
sS'Businesspeople from Kozhikode'
p2964
I330
sS'People from Jamui district'
p2965
I2092
sS'Indian Theosophists'
p2966
I1270
sS'People from Sonbhadra district'
p2967
I2589
sS'People from Kolkata'
p2968
I2189
sS'Municipal Commissioners of India'
p2969
I1556
sS'Quami Ekta Dal politicians'
p2970
I2812
sS'Indian people of Slavic descent'
p2971
I1092
sS'Premchand'
p2972
I2798
sS'People from Amritsar'
p2973
I1693
sS'6th-century BC Indian people'
p2974
I128
sS'People from Alipurduar district'
p2975
I1678
sS'19th-century Indian judges'
p2976
I55
sS'Surinamese people of Indian descent'
p2977
I2969
sS'Indian television journalists'
p2978
I1260
sS'Indian engineers by state'
p2979
I746
sS'Indian Anglicans'
p2980
I540
sS'People from Jodhpur district'
p2981
I2110
sS'People from Tuensang district'
p2982
I2676
sS'Indian women radio people'
p2983
I1315
sS'20th-century Indian artists'
p2984
I73
sS"National People's Party politicians"
p2985
I1570
sS'People from Vijayawada'
p2986
I2717
sS'Chilean people of Indian descent'
p2987
I360
sS'People from Amritsar district'
p2988
I1694
sS'Indian independence activists'
p2989
I859
sS'Indian diaspora in Afghanistan'
p2990
I656
sS'Indian chemists'
p2991
I598
sS'Indian Islamic creationists'
p2992
I879
sS'Indian planters'
p2993
I1123
sS'Women from Jharkhand'
p2994
I3051
sS'People from Puducherry by occupation'
p2995
I2443
sS'People from Banaskantha district'
p2996
I1742
sS'Indian magazine people'
p2997
I916
sS'People from Fatehgarh Sahib'
p2998
I1965
sS'People of British India'
p2999
I2755
sS'Indian sociologists'
p3000
I1222
sS'People from Mamit district'
p3001
I2273
sS'Naturalised citizens of India'
p3002
I1572
sS'People from Ahmedabad'
p3003
I1662
sS'People from Hoshangabad district'
p3004
I2049
sS'People from Kozhikode'
p3005
I2204
sS'Indian emigrants to Australia'
p3006
I704
sS'Assassinated Indian people'
p3007
I262
sS'People from North Goa district'
p3008
I2383
sS'People from Sagar district'
p3009
I2507
sS'Indo-Guyanese people'
p3010
I1343
sS'People from Irinjalakuda'
p3011
I2064
sS'People from South Goa district'
p3012
I2598
sS'Indian international schools in Saudi Arabia'
p3013
I873
sS'People from Dindigul district'
p3014
I1930
sS'Khilji dynasty'
p3015
I1402
sS'People from Nizamabad district'
p3016
I2376
sS'People from Kannauj district'
p3017
I2130
sS'People from Mau'
p3018
I2290
sS'Hindavi people'
p3019
I489
sS"Bodoland People's Front politicians"
p3020
I301
sS'People from Bishnupur district'
p3021
I1821
sS'Indian sportspeople by state of India'
p3022
I1236
sS'People from Tawang Town'
p3023
I2632
sS'Works by Indian writers'
p3024
I3089
sS'People from Kadapa district'
p3025
I2116
sS'People from Ambedkar Nagar district'
p3026
I1688
sS'Electoral history of Indian politicians'
p3027
I416
sS'All India Anna Dravida Munnetra Kazhagam politicians'
p3028
I199
sS'People from Kupwara district'
p3029
I2213
sS'Indian directors'
p3030
I693
sS'18th-century Indian scientists'
p3031
I43
sS'People from Bageshwar'
p3032
I1729
sS'19th-century Indian photographers'
p3033
I63
sS'Indian people of the Indian Rebellion of 1857'
p3034
I1099
sS'People from Krishnagar'
p3035
I2208
sS'Indian reporters and correspondents'
p3036
I1177
sS'Nawabs of India'
p3037
I1576
sS'Administrators in the princely states of India'
p3038
I186
sS'Indian people of Mauritian descent'
p3039
I1080
sS'People from Karauli district'
p3040
I2139
sS'People from Lakshadweep district'
p3041
I2227
sS'Indian government officials'
p3042
I842
sS'People from Gajapati district'
p3043
I1975
sS'People of Dougla descent'
p3044
I2756
sS'Indian diaspora in Indonesia'
p3045
I669
sS'Indian management scientists'
p3046
I938
sS'Recipients of the Ananda Purashkar'
p3047
I2839
sS'Writers from Mysore'
p3048
I3096
sS'Indian clergy'
p3049
I622
sS'Languages of the Indian diaspora'
p3050
I1415
sS'People from Rajkot district'
p3051
I2472
sS'Indian international schools in Oman'
p3052
I871
sS'Jewish Indian politicians'
p3053
I1367
sS'People from Viluppuram district'
p3054
I2718
sS'Indian escapees'
p3055
I751
sS'People from Thanjavur district'
p3056
I2643
sS'Paralympic powerlifters of India'
p3057
I1612
sS'Indian expatriates in Japan'
p3058
I777
sS'Indian software engineers'
p3059
I1223
sS'People from Jaisalmer'
p3060
I2070
sS'Revolutionary Socialist Party (India) politicians'
p3061
I2870
sS'Pattali Makkal Katchi politicians'
p3062
I1622
sS'People from Yadgir district'
p3063
I2746
sS'American people of Indian descent in health professions'
p3064
I217
sS'Indian people by period'
p3065
I1033
sS'Indian artists by century'
p3066
I555
sS'Indian emigrants to Fiji'
p3067
I711
sS'People from Firozabad'
p3068
I1969
sS'People from Shopian district'
p3069
I2559
sS'20th-century Indian musicians'
p3070
I84
sS'Caribbean people of Indian descent'
p3071
I336
sS'People from Salem, Tamil Nadu'
p3072
I2515
sS'People from Jehanabad district'
p3073
I2096
sS'Indian women in politics'
p3074
I1303
sS'People from Chandrapur district'
p3075
I1848
sS"Indian children's television series"
p3076
I605
sS'Women from Andhra Pradesh'
p3077
I3039
sS'People from Kanyakumari district'
p3078
I2136
sS'19th-century Indian Jain monks'
p3079
I53
sS'People from Solan district'
p3080
I2586
sS'Communist Party of India (Marxist) politicians'
p3081
I368
sS'People from Diu'
p3082
I1932
sS'People from Ashoknagar'
p3083
I1717
sS'Indian Olympic medalist stubs'
p3084
I1018
sS'Majlis-e-Ittehadul Muslimeen politicians'
p3085
I1488
sS'People of Punjabi descent'
p3086
I2765
sS'Indian emigrants to Canada'
p3087
I708
sS'Mayors of Kanpur'
p3088
I1511
sS'Indian Revenue Service officers'
p3089
I1178
sS'People from Kendrapara district'
p3090
I2159
sS'People from Ambarnath'
p3091
I1686
sS'Gaekwad dynasty'
p3092
I460
sS'Assassinated Indian journalists'
p3093
I261
sS'People from Bhiwani district'
p3094
I1799
sS'Haryana Janhit Congress politicians'
p3095
I484
sS'Ancient Indian writers'
p3096
I236
sS'Hungarian people of Indian descent'
p3097
I498
sS'Indian women police officers'
p3098
I1313
sS'People from Mon, India'
p3099
I2312
sS'Indian columnists'
p3100
I624
sS'Indian diaspora in Malaysia'
p3101
I672
sS'Indian emigrants to Germany'
p3102
I713
sS'People from Sri Ganganagar district'
p3103
I2606
s.