(dp0
S'NNP IN DT NNP IN NNP'
p1
I124
sS'JJ NNP NNP NNPS'
p2
I51
sS'NNS IN NNP NNP'
p3
I225
sS'NNS IN NNP CC NNP'
p4
I219
sS'CD NNS'
p5
I1
sS'NNP NNP NNS IN NNP'
p6
I161
sS'NNP IN JJ NN'
p7
I125
sS'JJ NNP JJ NNS'
p8
I42
sS'NNP NN NNS IN JJ NN'
p9
I138
sS'NNS NNS VBN IN NNP NNP'
p10
I247
sS'NNP CC NNP NNP NNP NNP NNS'
p11
I120
sS'NNS IN NNP ( NN )'
p12
I216
sS'JJ NN NNS'
p13
I35
sS'DT NNP NNP NNP NNS'
p14
I4
sS'JJ NNS IN DT NNP NNP'
p15
I65
sS'NNP NNP NNP JJ NNS'
p16
I153
sS'NNP NN'
p17
I134
sS'NNP NNP'
p18
I139
sS'NNP NNS IN JJ NNP'
p19
I168
sS'RB JJ NN'
p20
I255
sS'JJ NNS VBN IN NNS'
p21
I104
sS'NNP NNP NNS'
p22
I159
sS'JJ NN IN NNP CC NNP'
p23
I29
sS'JJ NNS VBN IN NNP'
p24
I103
sS'JJ JJ NNS IN JJ NNS'
p25
I14
sS'NNS IN DT NNP NNP NNP'
p26
I196
sS'JJ NNS NN NNS'
p27
I84
sS'NNP NNS IN JJ NN'
p28
I167
sS'NNP NNP NNS IN JJ NN'
p29
I160
sS'JJ NNS VBN IN NN'
p30
I102
sS'JJ NNS IN DT NNP NNP NNP'
p31
I66
sS'NNP CC NNP NNS IN JJ NN'
p32
I123
sS'NNP'
p33
I118
sS'JJ JJ NNS IN NNP NNP NNP'
p34
I17
sS'NNS IN DT NNP IN NNP'
p35
I187
sS'JJ NNS IN JJ CC JJ NN'
p36
I69
sS'NNP NNP NNP ( NNP ) NNS'
p37
I152
sS'JJ NNS IN NNP NNP NNP'
p38
I80
sS'NNP POS NN NNS IN NNP'
p39
I173
sS'NNS IN IN'
p40
I199
sS'JJ NNS IN NN NN'
p41
I75
sS'NNS VBN IN NNP'
p42
I252
sS'NNS IN NNP NNP NNP'
p43
I227
sS'JJ NN IN JJ NN'
p44
I26
sS'JJ NNS IN DT NNP'
p45
I64
sS'NNP NN NNS'
p46
I137
sS'JJ NNS IN DT NNP NNPS'
p47
I67
sS'NNP NNP NNP'
p48
I150
sS'NNS VBN IN NNP NNP'
p49
I253
sS'JJ NNS TO DT NNP NNP NNP'
p50
I93
sS'JJ NNS WP VBD IN NN NN'
p51
I107
sS'JJ NNS TO NNP CC NNP'
p52
I96
sS'JJ NN IN NNP NNP'
p53
I30
sS'NNP IN NNP NN'
p54
I128
sS'NNS IN DT JJ NNS IN NNP'
p55
I185
sS'NNS IN NNP , NNP'
p56
I217
sS'NNP IN NNP CC NNP'
p57
I127
sS'JJ NNS TO DT NNP NNP'
p58
I92
sS'JJ NNS IN JJ NN'
p59
I70
sS'NNP NN IN NNP'
p60
I136
sS'JJ NNS TO VB'
p61
I98
sS'NNP NNP IN NNP'
p62
I145
sS'NNS NNP IN JJ NNS'
p63
I244
sS'JJ NNP NNS IN JJ NN'
p64
I55
sS'JJ NNS IN JJ NNP'
p65
I72
sS'JJ NNS IN JJ NNS'
p66
I73
sS'NNP NNP ( NNP )'
p67
I140
sS'NNP JJ NNS IN JJ NN'
p68
I132
sS'JJ JJ NNP NNS VBN IN NN'
p69
I10
sS'NNP NN ( NNP )'
p70
I135
sS'JJ NN'
p71
I21
sS'JJ JJ NNP NNS'
p72
I9
sS'NNS IN VBN'
p73
I243
sS'NNS POS NNP IN NNP NNS'
p74
I248
sS'NNS IN DT NNP NNP IN NN CC NN'
p75
I191
sS'NNS IN DT NNP NNP'
p76
I189
sS'IN NNS IN NNP'
p77
I5
sS'JJ NNP NNP ( JJ NNP ) NNS'
p78
I45
sS'NNP NNS IN NNP'
p79
I169
sS'NNP NNPS IN NNP'
p80
I165
sS'NNS IN JJ'
p81
I200
sS'NNP JJ NNS IN NNP'
p82
I133
sS'JJ NNP NNP ( NNP )'
p83
I46
sS'NNP NNP NNP NNP NNP NNS'
p84
I155
sS'NNS IN JJ JJ NN'
p85
I202
sS'NNP NNP , NNP NNS'
p86
I142
sS'NNS IN NNS IN NNP NNP NNP'
p87
I240
sS'VBN NNS IN NNP'
p88
I258
sS'JJ NNS TO NNP NNP'
p89
I97
sS'VBN JJ NNS'
p90
I257
sS'NNP NNP NN NNS'
p91
I149
sS'JJ NNP IN NNP'
p92
I41
sS'JJ NNS IN NNP'
p93
I76
sS'JJ NNS IN NNS'
p94
I82
sS'JJ NN NNS CC NNS'
p95
I36
sS'NNS IN DT NNP NNP IN NNP NNP'
p96
I193
sS'NNS IN DT NNP NNP IN NNP NNPS'
p97
I194
sS'JJ NNS POS NNS NNS'
p98
I90
sS'NNS IN JJ NN'
p99
I203
sS'NNS IN NNP CD NNP NN'
p100
I221
sS'JJ NNS TO DT NNP NNPS'
p101
I94
sS'NNP NNP POS NNP NNS'
p102
I163
sS'NNP NNP ( NNP ) NNS'
p103
I141
sS'NNP POS NNP NNS'
p104
I174
sS'JJ NNP NNP NNS'
p105
I52
sS'JJ JJ NNS'
p106
I11
sS'NNS IN NNS IN NNP NNP'
p107
I239
sS'NNS IN NNPS IN NN'
p108
I233
sS'NNP CC NNP NNS'
p109
I122
sS'JJ JJ JJ NNS'
p110
I6
sS'NNP VBP JJ NNS'
p111
I177
sS'NNS IN NNP NNP NN'
p112
I226
sS'NN NNP NNP'
p113
I113
sS'JJ NNP CC NNP NNP NNS'
p114
I40
sS'JJ NN IN NNP'
p115
I28
sS'JJ NN NN NN'
p116
I33
sS'NNP NNP NNP NNP NNS'
p117
I156
sS'JJ NN NNS IN NNP'
p118
I37
sS'NNS IN JJ NNS IN NN NN'
p119
I211
sS'JJ NNS IN JJ NN IN NN NNS'
p120
I71
sS'NN NNP NNP NNP NNP'
p121
I114
sS'JJ JJ NNS IN NNP NNP'
p122
I16
sS'NNP ( NNP ) NN'
p123
I119
sS'JJ NNS POS NN NN'
p124
I88
sS'JJ NNS VBD TO NN'
p125
I101
sS'NNS IN NNP NNP NNP IN NNP'
p126
I228
sS'NNS IN DT NNP NNP IN NNP'
p127
I192
sS'NNS IN DT NNP NNP IN JJ NN'
p128
I190
sS'NNS IN JJ CD NNP NN'
p129
I201
sS'JJ NNP NN'
p130
I43
sS'JJ NNS'
p131
I58
sS'JJ NN CC NN NNS'
p132
I23
sS'JJ NNS VBN TO NN NN'
p133
I106
sS'NNP VBD IN DT NNP NNP NNP'
p134
I176
sS'NNS IN VBG'
p135
I241
sS'NNS IN NN'
p136
I213
sS'NNS IN NNP NNP NNP NNS'
p137
I231
sS'NNS IN NN IN NNP'
p138
I214
sS'NNP JJ NNS'
p139
I131
sS'NNP NNS'
p140
I166
sS'NNP IN NNP NNP IN NNP'
p141
I129
sS'JJ NNS IN NNP NNP NN'
p142
I79
sS'JJ JJ NNS IN DT NNP NNP NNP'
p143
I12
sS'JJ NNS CC NNS'
p144
I61
sS'DT NNP NNP NNP NNP NNP NNS'
p145
I3
sS'NNS IN NNP NN , NNP'
p146
I223
sS'NNS IN DT NNP CC NNP NNP'
p147
I186
sS'JJ NN NN NNS'
p148
I34
sS'NNS TO NNP NNP'
p149
I249
sS'NNS IN JJ NN NNS'
p150
I204
sS'NN'
p151
I109
sS'NNS IN DT JJ NNP IN CD'
p152
I184
sS'NNS IN DT NNP NNP IN NNS'
p153
I195
sS'JJ NN IN DT NNP NNP'
p154
I24
sS'NNS IN DT NNP NNP NNP NNP NNP'
p155
I198
sS'JJ NNP NNP IN NNP'
p156
I48
sS'NNS IN DT NNP NNP NNP NNP'
p157
I197
sS'NNS IN JJ NNS IN NNP'
p158
I212
sS'CD NN NNS'
p159
I0
sS'JJ JJ NNS IN JJ NN'
p160
I13
sS'JJ NN IN DT NNP NNPS'
p161
I25
sS'JJ JJ NN'
p162
I7
sS'JJ NNS ( NN )'
p163
I59
sS'NNS IN NNS IN NNP'
p164
I238
sS'NN IN NNP'
p165
I112
sS'JJ JJ NNS NNS'
p166
I19
sS'JJ NNP NNP IN NNP ( NNP ) NNS'
p167
I49
sS'JJ NNS IN NNP NNP PRP'
p168
I81
sS'NNP POS NN IN NNP'
p169
I172
sS'JJ NNS ( NNS )'
p170
I60
sS'NNP VBZ IN NNP NNP'
p171
I178
sS'JJ JJ NNS IN NNP NNP PRP'
p172
I18
sS'NNS'
p173
I179
sS'NNP NNP IN NNP NNS'
p174
I147
sS'JJ NNS IN NNP NNP'
p175
I78
sS'NNS IN DT NNP NN'
p176
I188
sS'NN NNS IN NNP'
p177
I116
sS'NNS IN NNP'
p178
I215
sS'NN IN DT JJ NN'
p179
I110
sS'NNS IN NNP , NNP NNP'
p180
I218
sS'NNS CC NNS TO VB'
p181
I183
sS'NNS IN VBG NN'
p182
I242
sS'NNS VBN IN DT JJ NNP NNP NNP'
p183
I250
sS'JJ NNP POS NNP NNP NNS'
p184
I56
sS'NNS IN JJ NNP NNP NN'
p185
I207
sS'NNP NNS IN NNP NN'
p186
I170
sS'NN NNS NNS'
p187
I117
sS'NNS IN JJ NNP'
p188
I205
sS'NNS IN NNS IN DT JJ NN'
p189
I234
sS'JJ NNP NNP NNP NNS'
p190
I50
sS'NNS IN NNS IN NN CC NN IN NNP'
p191
I236
sS'NNS IN JJ NNS CC NNS'
p192
I209
sS'NNS IN NNP NN'
p193
I222
sS'NNP NNP NNP ( NNP )'
p194
I151
sS'JJ NNS NNS CC NNS'
p195
I86
sS'JJ NNP NNS'
p196
I54
sS'JJ NNP NNP'
p197
I44
sS'JJ NNS JJ NNS'
p198
I83
sS'RB IN NNP NNP NNP'
p199
I254
sS'NNS IN JJ NNS'
p200
I208
sS'NNP JJ NNP NNS'
p201
I130
sS'DT NNP NNP NNP ( NNP ) NNS'
p202
I2
sS'NNS IN NNP CC NNP NNP NN'
p203
I220
sS'JJ NNS NNS IN JJ NN'
p204
I87
sS'NNS IN NNP NNP NNP NNP NN'
p205
I230
sS'NNS IN NNP NNP NNP NN'
p206
I229
sS'JJ NNP NNP NNS IN NNP'
p207
I53
sS'NNP IN NNP'
p208
I126
sS'JJ NN IN NN'
p209
I27
sS'NNP NNP IN NNP ( NNP ) NNS'
p210
I146
sS'NNP NNP NNP NNP'
p211
I154
sS'JJ NNS IN NNP NN'
p212
I77
sS'NNP NNP IN DT NNP NNP'
p213
I143
sS'NNP NNP NNPS'
p214
I158
sS'NNP POS NNS IN NNP'
p215
I175
sS'RB NN'
p216
I256
sS'JJ NNS IN DT NNPS'
p217
I68
sS'JJ NNS IN DT JJ NNP IN CD'
p218
I62
sS'NNP NNP NNP NNS'
p219
I157
sS'JJ NNP POS NNP NNS'
p220
I57
sS'JJ NNS VBD RB'
p221
I100
sS'NNP NNP IN JJ NN'
p222
I144
sS'JJ JJ NNS IN NNP'
p223
I15
sS'JJ NNS VBD'
p224
I99
sS'NN IN JJ NN'
p225
I111
sS'NNP NNP NNS IN NNP NN'
p226
I162
sS'JJ NN CC JJ NNS'
p227
I22
sS'JJ NNS IN DT NN'
p228
I63
sS'NNS NNP IN NNP'
p229
I245
sS'JJ JJ NN NNS'
p230
I8
sS'JJ NNS VBN IN NNS IN NN'
p231
I105
sS'NNS IN JJ NNS IN NN'
p232
I210
sS'JJ NNS POS NNS'
p233
I89
sS'NN NNS'
p234
I115
sS'NNS IN NNS IN NN IN NNP'
p235
I237
sS'NNS IN NNP NN , NNP NNP'
p236
I224
sS'NNS CC NNP NNP IN NNP NNS'
p237
I180
sS'JJ NN NN'
p238
I32
sS'JJ NNS TO DT NNP'
p239
I91
sS'JJ NN NNS VBN IN DT NN IN NN'
p240
I38
sS'JJ NNP'
p241
I39
sS'NNS IN JJ NNP NN'
p242
I206
sS'NNS CC NNS IN NNP NNP'
p243
I182
sS'JJ NNS NNS'
p244
I85
sS'NNS NNS'
p245
I246
sS'JJ NNP NNP ( NNP ) NNS'
p246
I47
sS'JJ JJ NNS VBN IN NN'
p247
I20
sS'JJ NNS TO NNP'
p248
I95
sS'NNP NNP NN'
p249
I148
sS'NNS IN NNP TO DT NNP NNP'
p250
I232
sS'NNS CC NNS IN JJ NNP'
p251
I181
sS'JJ VBZ IN NNP'
p252
I108
sS'JJ NNS IN NN'
p253
I74
sS'NNP NNP VBD NNS'
p254
I164
sS'NNP NNS NNS'
p255
I171
sS'NNP CC NNP NNP NNS'
p256
I121
sS'JJ NN IN VBG NNS'
p257
I31
sS'NNS IN NNS IN JJ NN'
p258
I235
sS'NNS VBN IN DT NNP ( NNP )'
p259
I251
s.